
onboot:     file format elf32-littlearm


Disassembly of section .text:

47000000 <_start>:
47000000:	ea000012 	b	47000050 <reset>
47000004:	e320f000 	nop	{0}
47000008:	e59ff014 	ldr	pc, [pc, #20]	; 47000024 <_software_interrupt>
4700000c:	e59ff014 	ldr	pc, [pc, #20]	; 47000028 <_prefetch_abort>
47000010:	e59ff014 	ldr	pc, [pc, #20]	; 4700002c <_data_abort>
47000014:	e59ff014 	ldr	pc, [pc, #20]	; 47000030 <_not_used>
47000018:	e59ff014 	ldr	pc, [pc, #20]	; 47000034 <_irq>
4700001c:	e59ff014 	ldr	pc, [pc, #20]	; 47000038 <_fiq>

47000020 <secure_boot_status_value>:
47000020:	00000008 	.word	0x00000008

47000024 <_software_interrupt>:
47000024:	47000160 	.word	0x47000160

47000028 <_prefetch_abort>:
47000028:	47000160 	.word	0x47000160

4700002c <_data_abort>:
4700002c:	47000160 	.word	0x47000160

47000030 <_not_used>:
47000030:	47000160 	.word	0x47000160

47000034 <_irq>:
47000034:	47000160 	.word	0x47000160

47000038 <_fiq>:
47000038:	47000160 	.word	0x47000160

4700003c <_pad>:
4700003c:	12345678 	.word	0x12345678

47000040 <_end_vect>:
47000040:	47000000 	.word	0x47000000

47000044 <_armboot_start>:
47000044:	47000000 	.word	0x47000000

47000048 <_bss_start>:
47000048:	47007ae8 	.word	0x47007ae8

4700004c <_bss_end>:
4700004c:	47007b08 	.word	0x47007b08

47000050 <reset>:
47000050:	e10f0000 	mrs	r0, CPSR
47000054:	e3c0001f 	bic	r0, r0, #31
47000058:	e38000d3 	orr	r0, r0, #211	; 0xd3
4700005c:	e129f000 	msr	CPSR_fc, r0
47000060:	eb000029 	bl	4700010c <cpu_init_crit>

47000064 <stack_setup>:
47000064:	e51f002c 	ldr	r0, [pc, #-44]	; 47000040 <_end_vect>
47000068:	e2400702 	sub	r0, r0, #524288	; 0x80000
4700006c:	e2400c02 	sub	r0, r0, #512	; 0x200
47000070:	e240d00c 	sub	sp, r0, #12
47000074:	e3cdd007 	bic	sp, sp, #7

47000078 <clear_bss>:
47000078:	e51f0038 	ldr	r0, [pc, #-56]	; 47000048 <_bss_start>
4700007c:	e51f1038 	ldr	r1, [pc, #-56]	; 4700004c <_bss_end>
47000080:	e3a02000 	mov	r2, #0

47000084 <clbss_l>:
47000084:	e5802000 	str	r2, [r0]
47000088:	e1500001 	cmp	r0, r1
4700008c:	e2800004 	add	r0, r0, #4
47000090:	1afffffb 	bne	47000084 <clbss_l>
47000094:	eb00026a 	bl	47000a44 <__sdp_mmc>

47000098 <secure_boot_auth_whole_mmc>:
47000098:	e59f00c0 	ldr	r0, [pc, #192]	; 47000160 <data_abort>
4700009c:	e5901038 	ldr	r1, [r0, #56]	; 0x38
470000a0:	e2111001 	ands	r1, r1, #1
470000a4:	ea000014 	b	470000fc <end_secure_boot>
470000a8:	e3a02447 	mov	r2, #1191182336	; 0x47000000
470000ac:	e3a07802 	mov	r7, #131072	; 0x20000
470000b0:	e2477010 	sub	r7, r7, #16
470000b4:	e0821007 	add	r1, r2, r7
470000b8:	e8910078 	ldm	r1, {r3, r4, r5, r6}
470000bc:	e5802420 	str	r2, [r0, #1056]	; 0x420
470000c0:	e5807414 	str	r7, [r0, #1044]	; 0x414
470000c4:	e5807464 	str	r7, [r0, #1124]	; 0x464
470000c8:	e3a010c3 	mov	r1, #195	; 0xc3
470000cc:	e5801430 	str	r1, [r0, #1072]	; 0x430
470000d0:	e2802b01 	add	r2, r0, #1024	; 0x400
470000d4:	e2822054 	add	r2, r2, #84	; 0x54
470000d8:	e8820078 	stm	r2, {r3, r4, r5, r6}
470000dc:	e3a01023 	mov	r1, #35	; 0x23
470000e0:	e5801404 	str	r1, [r0, #1028]	; 0x404
470000e4:	e5901400 	ldr	r1, [r0, #1024]	; 0x400
470000e8:	e1b01001 	movs	r1, r1
470000ec:	1afffffc 	bne	470000e4 <secure_boot_auth_whole_mmc+0x4c>

470000f0 <check_auth_whole>:
470000f0:	e5901494 	ldr	r1, [r0, #1172]	; 0x494
470000f4:	e3510001 	cmp	r1, #1
470000f8:	1afffffc 	bne	470000f0 <check_auth_whole>

470000fc <end_secure_boot>:
470000fc:	e320f000 	nop	{0}
47000100:	e320f000 	nop	{0}
47000104:	e51ff004 	ldr	pc, [pc, #-4]	; 47000108 <_Main>

47000108 <_Main>:
47000108:	47003354 	.word	0x47003354

4700010c <cpu_init_crit>:
4700010c:	ee111f11 	mrc	15, 0, r1, cr1, cr1, {0}
47000110:	e3110001 	tst	r1, #1
47000114:	1a000002 	bne	47000124 <cpu_init_crit+0x18>
47000118:	ee1f1f30 	mrc	15, 0, r1, cr15, cr0, {1}
4700011c:	e3811040 	orr	r1, r1, #64	; 0x40
47000120:	ee0f1f30 	mcr	15, 0, r1, cr15, cr0, {1}
47000124:	e3a00000 	mov	r0, #0
47000128:	ee080f17 	mcr	15, 0, r0, cr8, cr7, {0}
4700012c:	ee070f15 	mcr	15, 0, r0, cr7, cr5, {0}
47000130:	ee110f10 	mrc	15, 0, r0, cr1, cr0, {0}
47000134:	e3c00a02 	bic	r0, r0, #8192	; 0x2000
47000138:	e3c00007 	bic	r0, r0, #7
4700013c:	e3800002 	orr	r0, r0, #2
47000140:	e3800b06 	orr	r0, r0, #6144	; 0x1800
47000144:	ee010f10 	mcr	15, 0, r0, cr1, cr0, {0}
47000148:	e1a0c00e 	mov	ip, lr
4700014c:	eb0002ab 	bl	47000c00 <lowlevel_init>
47000150:	e1a0e00c 	mov	lr, ip
47000154:	e1a0f00e 	mov	pc, lr
47000158:	e320f000 	nop	{0}
4700015c:	e320f000 	nop	{0}

47000160 <data_abort>:
47000160:	303f0000 	.word	0x303f0000
47000164:	e320f000 	nop	{0}
47000168:	e320f000 	nop	{0}
4700016c:	e320f000 	nop	{0}
47000170:	e320f000 	nop	{0}
47000174:	e320f000 	nop	{0}
47000178:	e320f000 	nop	{0}
4700017c:	e320f000 	nop	{0}

47000180 <mmc_desc_init>:
47000180:	e1a03622 	lsr	r3, r2, #12
47000184:	e1a0c000 	mov	ip, r0
47000188:	e92d4030 	push	{r4, r5, lr}
4700018c:	e1520603 	cmp	r2, r3, lsl #12
47000190:	12833001 	addne	r3, r3, #1
47000194:	e3520a01 	cmp	r2, #4096	; 0x1000
47000198:	e3a04000 	mov	r4, #0
4700019c:	93a03001 	movls	r3, #1
470001a0:	ea000007 	b	470001c4 <mmc_desc_init+0x44>
470001a4:	e3a05142 	mov	r5, #-2147483632	; 0x80000010
470001a8:	e5001008 	str	r1, [r0, #-8]
470001ac:	e5005010 	str	r5, [r0, #-16]
470001b0:	e2844001 	add	r4, r4, #1
470001b4:	e3a05a01 	mov	r5, #4096	; 0x1000
470001b8:	e0811005 	add	r1, r1, r5
470001bc:	e500500c 	str	r5, [r0, #-12]
470001c0:	e5000004 	str	r0, [r0, #-4]
470001c4:	e1540003 	cmp	r4, r3
470001c8:	e2800010 	add	r0, r0, #16
470001cc:	3afffff4 	bcc	470001a4 <mmc_desc_init+0x24>
470001d0:	e59c1000 	ldr	r1, [ip]
470001d4:	e3811008 	orr	r1, r1, #8
470001d8:	e58c1000 	str	r1, [ip]
470001dc:	e2431001 	sub	r1, r3, #1
470001e0:	e243337f 	sub	r3, r3, #-67108863	; 0xfc000001
470001e4:	e243363f 	sub	r3, r3, #66060288	; 0x3f00000
470001e8:	e08c4201 	add	r4, ip, r1, lsl #4
470001ec:	e79c0201 	ldr	r0, [ip, r1, lsl #4]
470001f0:	e0423603 	sub	r3, r2, r3, lsl #12
470001f4:	e3800004 	orr	r0, r0, #4
470001f8:	e5843004 	str	r3, [r4, #4]
470001fc:	e78c0201 	str	r0, [ip, r1, lsl #4]
47000200:	e3a00000 	mov	r0, #0
47000204:	e584000c 	str	r0, [r4, #12]
47000208:	e8bd8030 	pop	{r4, r5, pc}

4700020c <sdp_mmc_init_controller>:
4700020c:	e59f30b8 	ldr	r3, [pc, #184]	; 470002cc <sdp_mmc_init_controller+0xc0>
47000210:	e5932934 	ldr	r2, [r3, #2356]	; 0x934
47000214:	e1a02802 	lsl	r2, r2, #16
47000218:	e1a02822 	lsr	r2, r2, #16
4700021c:	e5832934 	str	r2, [r3, #2356]	; 0x934
47000220:	e5932934 	ldr	r2, [r3, #2356]	; 0x934
47000224:	e3822443 	orr	r2, r2, #1124073472	; 0x43000000
47000228:	e38228c3 	orr	r2, r2, #12779520	; 0xc30000
4700022c:	e5832934 	str	r2, [r3, #2356]	; 0x934
47000230:	e2433809 	sub	r3, r3, #589824	; 0x90000
47000234:	e3a02001 	mov	r2, #1
47000238:	e5832080 	str	r2, [r3, #128]	; 0x80
4700023c:	e3a03203 	mov	r3, #805306368	; 0x30000000
47000240:	e5932080 	ldr	r2, [r3, #128]	; 0x80
47000244:	e3120001 	tst	r2, #1
47000248:	1afffffb 	bne	4700023c <sdp_mmc_init_controller+0x30>
4700024c:	e3a02007 	mov	r2, #7
47000250:	e5832000 	str	r2, [r3]
47000254:	e3a03203 	mov	r3, #805306368	; 0x30000000
47000258:	e5932000 	ldr	r2, [r3]
4700025c:	e2122007 	ands	r2, r2, #7
47000260:	1afffffb 	bne	47000254 <sdp_mmc_init_controller+0x48>
47000264:	e5832018 	str	r2, [r3, #24]
47000268:	e3e01901 	mvn	r1, #16384	; 0x4000
4700026c:	e5832004 	str	r2, [r3, #4]
47000270:	e3a02001 	mov	r2, #1
47000274:	e5832004 	str	r2, [r3, #4]
47000278:	e3e02000 	mvn	r2, #0
4700027c:	e5832044 	str	r2, [r3, #68]	; 0x44
47000280:	e5831024 	str	r1, [r3, #36]	; 0x24
47000284:	e59f1044 	ldr	r1, [pc, #68]	; 470002d0 <sdp_mmc_init_controller+0xc4>
47000288:	e5831000 	str	r1, [r3]
4700028c:	e5832014 	str	r2, [r3, #20]
47000290:	e2822801 	add	r2, r2, #65536	; 0x10000
47000294:	e5832010 	str	r2, [r3, #16]
47000298:	e282280f 	add	r2, r2, #983040	; 0xf0000
4700029c:	e5832064 	str	r2, [r3, #100]	; 0x64
470002a0:	e59f202c 	ldr	r2, [pc, #44]	; 470002d4 <sdp_mmc_init_controller+0xc8>
470002a4:	e583204c 	str	r2, [r3, #76]	; 0x4c
470002a8:	e3a02082 	mov	r2, #130	; 0x82
470002ac:	e5832080 	str	r2, [r3, #128]	; 0x80
470002b0:	e59f2020 	ldr	r2, [pc, #32]	; 470002d8 <sdp_mmc_init_controller+0xcc>
470002b4:	e5832088 	str	r2, [r3, #136]	; 0x88
470002b8:	e3002337 	movw	r2, #823	; 0x337
470002bc:	e5832090 	str	r2, [r3, #144]	; 0x90
470002c0:	e3a02c02 	mov	r2, #512	; 0x200
470002c4:	e5832020 	str	r2, [r3, #32]
470002c8:	e12fff1e 	bx	lr
470002cc:	30090000 	.word	0x30090000
470002d0:	02000010 	.word	0x02000010
470002d4:	20070008 	.word	0x20070008
470002d8:	47d00000 	.word	0x47d00000

470002dc <mmc_plat_loop>:
470002dc:	e12fff1e 	bx	lr

470002e0 <mmc_poll_cmd_done>:
470002e0:	e92d4010 	push	{r4, lr}
470002e4:	e3a04000 	mov	r4, #0
470002e8:	e3a03203 	mov	r3, #805306368	; 0x30000000
470002ec:	e593302c 	ldr	r3, [r3, #44]	; 0x2c
470002f0:	e3530000 	cmp	r3, #0
470002f4:	ba000001 	blt	47000300 <mmc_poll_cmd_done+0x20>
470002f8:	e3a00000 	mov	r0, #0
470002fc:	e8bd8010 	pop	{r4, pc}
47000300:	e2844001 	add	r4, r4, #1
47000304:	e3a0000a 	mov	r0, #10
47000308:	ebfffff3 	bl	470002dc <mmc_plat_loop>
4700030c:	e30031f5 	movw	r3, #501	; 0x1f5
47000310:	e1540003 	cmp	r4, r3
47000314:	1afffff3 	bne	470002e8 <mmc_poll_cmd_done+0x8>
47000318:	e3a00001 	mov	r0, #1
4700031c:	e8bd8010 	pop	{r4, pc}

47000320 <_mmc_wait_on_data_state_mc_busy>:
47000320:	e3a03203 	mov	r3, #805306368	; 0x30000000
47000324:	e5933048 	ldr	r3, [r3, #72]	; 0x48
47000328:	e3130b01 	tst	r3, #1024	; 0x400
4700032c:	012fff1e 	bxeq	lr
47000330:	e3500000 	cmp	r0, #0
47000334:	012fff1e 	bxeq	lr
47000338:	e2400001 	sub	r0, r0, #1
4700033c:	eafffff7 	b	47000320 <_mmc_wait_on_data_state_mc_busy>

47000340 <_mmc_wait_on_busy>:
47000340:	e3a03ffa 	mov	r3, #1000	; 0x3e8
47000344:	e0030093 	mul	r3, r3, r0
47000348:	e3a02203 	mov	r2, #805306368	; 0x30000000
4700034c:	e5922048 	ldr	r2, [r2, #72]	; 0x48
47000350:	e3120c02 	tst	r2, #512	; 0x200
47000354:	012fff1e 	bxeq	lr
47000358:	e3530000 	cmp	r3, #0
4700035c:	012fff1e 	bxeq	lr
47000360:	e2433001 	sub	r3, r3, #1
47000364:	eafffff7 	b	47000348 <_mmc_wait_on_busy+0x8>

47000368 <_mmc_wait_for_intr>:
47000368:	e3a03ffa 	mov	r3, #1000	; 0x3e8
4700036c:	e0030093 	mul	r3, r3, r0
47000370:	e3a02203 	mov	r2, #805306368	; 0x30000000
47000374:	e5922044 	ldr	r2, [r2, #68]	; 0x44
47000378:	e3120004 	tst	r2, #4
4700037c:	112fff1e 	bxne	lr
47000380:	e3530000 	cmp	r3, #0
47000384:	012fff1e 	bxeq	lr
47000388:	e2433001 	sub	r3, r3, #1
4700038c:	eafffff7 	b	47000370 <_mmc_wait_for_intr+0x8>

47000390 <_mmc_wait_for_dto>:
47000390:	e3a03ffa 	mov	r3, #1000	; 0x3e8
47000394:	e0030093 	mul	r3, r3, r0
47000398:	e3a02203 	mov	r2, #805306368	; 0x30000000
4700039c:	e5922044 	ldr	r2, [r2, #68]	; 0x44
470003a0:	e3120008 	tst	r2, #8
470003a4:	112fff1e 	bxne	lr
470003a8:	e3530000 	cmp	r3, #0
470003ac:	012fff1e 	bxeq	lr
470003b0:	e2433001 	sub	r3, r3, #1
470003b4:	eafffff7 	b	47000398 <_mmc_wait_for_dto+0x8>

470003b8 <_mmc_get_err>:
470003b8:	e3a03203 	mov	r3, #805306368	; 0x30000000
470003bc:	e24dd008 	sub	sp, sp, #8
470003c0:	e5933044 	ldr	r3, [r3, #68]	; 0x44
470003c4:	e58d3004 	str	r3, [sp, #4]
470003c8:	e59d0004 	ldr	r0, [sp, #4]
470003cc:	e59d3004 	ldr	r3, [sp, #4]
470003d0:	e3130a02 	tst	r3, #8192	; 0x2000
470003d4:	e59d3004 	ldr	r3, [sp, #4]
470003d8:	07e007d0 	ubfxeq	r0, r0, #15, #1
470003dc:	13a00001 	movne	r0, #1
470003e0:	e3130a01 	tst	r3, #4096	; 0x1000
470003e4:	e59d3004 	ldr	r3, [sp, #4]
470003e8:	13a00001 	movne	r0, #1
470003ec:	e3130b02 	tst	r3, #2048	; 0x800
470003f0:	e59d3004 	ldr	r3, [sp, #4]
470003f4:	13a00001 	movne	r0, #1
470003f8:	e3130b01 	tst	r3, #1024	; 0x400
470003fc:	e59d3004 	ldr	r3, [sp, #4]
47000400:	13a00001 	movne	r0, #1
47000404:	e3130c02 	tst	r3, #512	; 0x200
47000408:	e59d3004 	ldr	r3, [sp, #4]
4700040c:	13a00001 	movne	r0, #1
47000410:	e3130c01 	tst	r3, #256	; 0x100
47000414:	e59d3004 	ldr	r3, [sp, #4]
47000418:	13a00001 	movne	r0, #1
4700041c:	e3130080 	tst	r3, #128	; 0x80
47000420:	e59d3004 	ldr	r3, [sp, #4]
47000424:	13a00001 	movne	r0, #1
47000428:	e3130040 	tst	r3, #64	; 0x40
4700042c:	e59d3004 	ldr	r3, [sp, #4]
47000430:	13a00001 	movne	r0, #1
47000434:	e3130002 	tst	r3, #2
47000438:	13a00001 	movne	r0, #1
4700043c:	e28dd008 	add	sp, sp, #8
47000440:	e12fff1e 	bx	lr

47000444 <mmc_response_status>:
47000444:	e12fff1e 	bx	lr

47000448 <mmc_send_cmd_wait>:
47000448:	e3a03203 	mov	r3, #805306368	; 0x30000000
4700044c:	e5932000 	ldr	r2, [r3]
47000450:	e92d4070 	push	{r4, r5, r6, lr}
47000454:	e1a04000 	mov	r4, r0
47000458:	e3822006 	orr	r2, r2, #6
4700045c:	e5832000 	str	r2, [r3]
47000460:	e3a05203 	mov	r5, #805306368	; 0x30000000
47000464:	e5953000 	ldr	r3, [r5]
47000468:	e3130006 	tst	r3, #6
4700046c:	1afffffb 	bne	47000460 <mmc_send_cmd_wait+0x18>
47000470:	e3e03000 	mvn	r3, #0
47000474:	e5853044 	str	r3, [r5, #68]	; 0x44
47000478:	e585308c 	str	r3, [r5, #140]	; 0x8c
4700047c:	e5851028 	str	r1, [r5, #40]	; 0x28
47000480:	e585402c 	str	r4, [r5, #44]	; 0x2c
47000484:	ebffff95 	bl	470002e0 <mmc_poll_cmd_done>
47000488:	e3500000 	cmp	r0, #0
4700048c:	1a00000e 	bne	470004cc <mmc_send_cmd_wait+0x84>
47000490:	e2800064 	add	r0, r0, #100	; 0x64
47000494:	ebffff90 	bl	470002dc <mmc_plat_loop>
47000498:	e3040e20 	movw	r0, #20000	; 0x4e20
4700049c:	ebffffb1 	bl	47000368 <_mmc_wait_for_intr>
470004a0:	e5953044 	ldr	r3, [r5, #68]	; 0x44
470004a4:	e3130004 	tst	r3, #4
470004a8:	0a000007 	beq	470004cc <mmc_send_cmd_wait+0x84>
470004ac:	e3140c02 	tst	r4, #512	; 0x200
470004b0:	0a000001 	beq	470004bc <mmc_send_cmd_wait+0x74>
470004b4:	e3040e20 	movw	r0, #20000	; 0x4e20
470004b8:	ebffffb4 	bl	47000390 <_mmc_wait_for_dto>
470004bc:	e3040e20 	movw	r0, #20000	; 0x4e20
470004c0:	ebffff9e 	bl	47000340 <_mmc_wait_on_busy>
470004c4:	e8bd4070 	pop	{r4, r5, r6, lr}
470004c8:	eaffffba 	b	470003b8 <_mmc_get_err>
470004cc:	e3a00001 	mov	r0, #1
470004d0:	e8bd8070 	pop	{r4, r5, r6, pc}

470004d4 <sdp_mmc_set_clk>:
470004d4:	e59f3094 	ldr	r3, [pc, #148]	; 47000570 <sdp_mmc_set_clk+0x9c>
470004d8:	e92d4070 	push	{r4, r5, r6, lr}
470004dc:	e1500003 	cmp	r0, r3
470004e0:	83a06001 	movhi	r6, #1
470004e4:	8a000007 	bhi	47000508 <sdp_mmc_set_clk+0x34>
470004e8:	e59f3084 	ldr	r3, [pc, #132]	; 47000574 <sdp_mmc_set_clk+0xa0>
470004ec:	e3a06001 	mov	r6, #1
470004f0:	e1b06086 	lsls	r6, r6, #1
470004f4:	e1a030a3 	lsr	r3, r3, #1
470004f8:	03a06001 	moveq	r6, #1
470004fc:	e1530000 	cmp	r3, r0
47000500:	2afffffa 	bcs	470004f0 <sdp_mmc_set_clk+0x1c>
47000504:	e1a060a6 	lsr	r6, r6, #1
47000508:	e59f5068 	ldr	r5, [pc, #104]	; 47000578 <sdp_mmc_set_clk+0xa4>
4700050c:	e3a04203 	mov	r4, #805306368	; 0x30000000
47000510:	e3a03000 	mov	r3, #0
47000514:	e5843010 	str	r3, [r4, #16]
47000518:	e5843028 	str	r3, [r4, #40]	; 0x28
4700051c:	e584502c 	str	r5, [r4, #44]	; 0x2c
47000520:	ebffff6e 	bl	470002e0 <mmc_poll_cmd_done>
47000524:	e3500000 	cmp	r0, #0
47000528:	1a00000e 	bne	47000568 <sdp_mmc_set_clk+0x94>
4700052c:	e5840008 	str	r0, [r4, #8]
47000530:	e5846008 	str	r6, [r4, #8]
47000534:	e5840028 	str	r0, [r4, #40]	; 0x28
47000538:	e584502c 	str	r5, [r4, #44]	; 0x2c
4700053c:	ebffff67 	bl	470002e0 <mmc_poll_cmd_done>
47000540:	e3500000 	cmp	r0, #0
47000544:	1a000007 	bne	47000568 <sdp_mmc_set_clk+0x94>
47000548:	e30f3fff 	movw	r3, #65535	; 0xffff
4700054c:	e5843010 	str	r3, [r4, #16]
47000550:	e5840028 	str	r0, [r4, #40]	; 0x28
47000554:	e584502c 	str	r5, [r4, #44]	; 0x2c
47000558:	ebffff60 	bl	470002e0 <mmc_poll_cmd_done>
4700055c:	e2500000 	subs	r0, r0, #0
47000560:	13a00001 	movne	r0, #1
47000564:	e8bd8070 	pop	{r4, r5, r6, pc}
47000568:	e3a00001 	mov	r0, #1
4700056c:	e8bd8070 	pop	{r4, r5, r6, pc}
47000570:	02faf07f 	.word	0x02faf07f
47000574:	05f5e100 	.word	0x05f5e100
47000578:	80202000 	.word	0x80202000

4700057c <sdp_mmc_go_idle_state>:
4700057c:	e92d4008 	push	{r3, lr}
47000580:	e3a01000 	mov	r1, #0
47000584:	e59f000c 	ldr	r0, [pc, #12]	; 47000598 <sdp_mmc_go_idle_state+0x1c>
47000588:	ebffffae 	bl	47000448 <mmc_send_cmd_wait>
4700058c:	e2500000 	subs	r0, r0, #0
47000590:	13a00001 	movne	r0, #1
47000594:	e8bd8008 	pop	{r3, pc}
47000598:	80008000 	.word	0x80008000

4700059c <sdp_mmc_sd_send_if_cond>:
4700059c:	e92d4008 	push	{r3, lr}
470005a0:	e30011aa 	movw	r1, #426	; 0x1aa
470005a4:	e59f000c 	ldr	r0, [pc, #12]	; 470005b8 <sdp_mmc_sd_send_if_cond+0x1c>
470005a8:	ebffffa6 	bl	47000448 <mmc_send_cmd_wait>
470005ac:	e2500000 	subs	r0, r0, #0
470005b0:	13a00001 	movne	r0, #1
470005b4:	e8bd8008 	pop	{r3, pc}
470005b8:	80000048 	.word	0x80000048

470005bc <sdp_mmc_send_op_cond>:
470005bc:	e92d4008 	push	{r3, lr}
470005c0:	e59f0020 	ldr	r0, [pc, #32]	; 470005e8 <sdp_mmc_send_op_cond+0x2c>
470005c4:	e59f1020 	ldr	r1, [pc, #32]	; 470005ec <sdp_mmc_send_op_cond+0x30>
470005c8:	ebffff9e 	bl	47000448 <mmc_send_cmd_wait>
470005cc:	e3a03203 	mov	r3, #805306368	; 0x30000000
470005d0:	e5933030 	ldr	r3, [r3, #48]	; 0x30
470005d4:	e3500000 	cmp	r0, #0
470005d8:	1afffff8 	bne	470005c0 <sdp_mmc_send_op_cond+0x4>
470005dc:	e3530000 	cmp	r3, #0
470005e0:	aafffff6 	bge	470005c0 <sdp_mmc_send_op_cond+0x4>
470005e4:	e8bd8008 	pop	{r3, pc}
470005e8:	80000041 	.word	0x80000041
470005ec:	40ff8000 	.word	0x40ff8000

470005f0 <sdp_mmc_all_send_cid>:
470005f0:	e92d4008 	push	{r3, lr}
470005f4:	e3a01000 	mov	r1, #0
470005f8:	e59f000c 	ldr	r0, [pc, #12]	; 4700060c <sdp_mmc_all_send_cid+0x1c>
470005fc:	ebffff91 	bl	47000448 <mmc_send_cmd_wait>
47000600:	e2500000 	subs	r0, r0, #0
47000604:	13a00001 	movne	r0, #1
47000608:	e8bd8008 	pop	{r3, pc}
4700060c:	800001c2 	.word	0x800001c2

47000610 <sdp_mmc_send_relative_addr>:
47000610:	e92d4008 	push	{r3, lr}
47000614:	e3a01000 	mov	r1, #0
47000618:	e59f000c 	ldr	r0, [pc, #12]	; 4700062c <sdp_mmc_send_relative_addr+0x1c>
4700061c:	ebffff89 	bl	47000448 <mmc_send_cmd_wait>
47000620:	e2500000 	subs	r0, r0, #0
47000624:	13a00001 	movne	r0, #1
47000628:	e8bd8008 	pop	{r3, pc}
4700062c:	80000143 	.word	0x80000143

47000630 <sdp_mmc_send_csd>:
47000630:	e92d4008 	push	{r3, lr}
47000634:	e3a01000 	mov	r1, #0
47000638:	e59f000c 	ldr	r0, [pc, #12]	; 4700064c <sdp_mmc_send_csd+0x1c>
4700063c:	ebffff81 	bl	47000448 <mmc_send_cmd_wait>
47000640:	e2500000 	subs	r0, r0, #0
47000644:	13a00001 	movne	r0, #1
47000648:	e8bd8008 	pop	{r3, pc}
4700064c:	800001c9 	.word	0x800001c9

47000650 <sdp_mmc_select_card>:
47000650:	e3500001 	cmp	r0, #1
47000654:	e92d4008 	push	{r3, lr}
47000658:	1a000005 	bne	47000674 <sdp_mmc_select_card+0x24>
4700065c:	e59f0034 	ldr	r0, [pc, #52]	; 47000698 <sdp_mmc_select_card+0x48>
47000660:	e3a01000 	mov	r1, #0
47000664:	ebffff77 	bl	47000448 <mmc_send_cmd_wait>
47000668:	e2500000 	subs	r0, r0, #0
4700066c:	13a00001 	movne	r0, #1
47000670:	e8bd8008 	pop	{r3, pc}
47000674:	e3500002 	cmp	r0, #2
47000678:	13a00001 	movne	r0, #1
4700067c:	18bd8008 	popne	{r3, pc}
47000680:	e3a01000 	mov	r1, #0
47000684:	e3a0011e 	mov	r0, #-2147483641	; 0x80000007
47000688:	ebffff6e 	bl	47000448 <mmc_send_cmd_wait>
4700068c:	e2500000 	subs	r0, r0, #0
47000690:	13a00001 	movne	r0, #1
47000694:	e8bd8008 	pop	{r3, pc}
47000698:	80000147 	.word	0x80000147

4700069c <sdp_mmc_send_ext_csd>:
4700069c:	e92d4008 	push	{r3, lr}
470006a0:	e3a03203 	mov	r3, #805306368	; 0x30000000
470006a4:	e3a02c02 	mov	r2, #512	; 0x200
470006a8:	e1a01000 	mov	r1, r0
470006ac:	e583201c 	str	r2, [r3, #28]
470006b0:	e59f001c 	ldr	r0, [pc, #28]	; 470006d4 <sdp_mmc_send_ext_csd+0x38>
470006b4:	e5832020 	str	r2, [r3, #32]
470006b8:	ebfffeb0 	bl	47000180 <mmc_desc_init>
470006bc:	e3a01000 	mov	r1, #0
470006c0:	e59f0010 	ldr	r0, [pc, #16]	; 470006d8 <sdp_mmc_send_ext_csd+0x3c>
470006c4:	ebffff5f 	bl	47000448 <mmc_send_cmd_wait>
470006c8:	e2500000 	subs	r0, r0, #0
470006cc:	13a00001 	movne	r0, #1
470006d0:	e8bd8008 	pop	{r3, pc}
470006d4:	47d00000 	.word	0x47d00000
470006d8:	80002348 	.word	0x80002348

470006dc <sdp_mmc_switch_ext_csd>:
470006dc:	e1833801 	orr	r3, r3, r1, lsl #16
470006e0:	e1830c00 	orr	r0, r3, r0, lsl #24
470006e4:	e1800402 	orr	r0, r0, r2, lsl #8
470006e8:	e12fff1e 	bx	lr

470006ec <sdp_mmc_switch>:
470006ec:	e92d4008 	push	{r3, lr}
470006f0:	ebfffff9 	bl	470006dc <sdp_mmc_switch_ext_csd>
470006f4:	e1a01000 	mov	r1, r0
470006f8:	e59f000c 	ldr	r0, [pc, #12]	; 4700070c <sdp_mmc_switch+0x20>
470006fc:	ebffff51 	bl	47000448 <mmc_send_cmd_wait>
47000700:	e2500000 	subs	r0, r0, #0
47000704:	13a00001 	movne	r0, #1
47000708:	e8bd8008 	pop	{r3, pc}
4700070c:	80000146 	.word	0x80000146

47000710 <sdp_mmc_set_block_length>:
47000710:	e1a01000 	mov	r1, r0
47000714:	e59f002c 	ldr	r0, [pc, #44]	; 47000748 <sdp_mmc_set_block_length+0x38>
47000718:	e92d4008 	push	{r3, lr}
4700071c:	ebffff49 	bl	47000448 <mmc_send_cmd_wait>
47000720:	e3500000 	cmp	r0, #0
47000724:	13a00001 	movne	r0, #1
47000728:	18bd8008 	popne	{r3, pc}
4700072c:	e3a03203 	mov	r3, #805306368	; 0x30000000
47000730:	e59f0014 	ldr	r0, [pc, #20]	; 4700074c <sdp_mmc_set_block_length+0x3c>
47000734:	e5933030 	ldr	r3, [r3, #48]	; 0x30
47000738:	e0030000 	and	r0, r3, r0
4700073c:	e2500000 	subs	r0, r0, #0
47000740:	13a00001 	movne	r0, #1
47000744:	e8bd8008 	pop	{r3, pc}
47000748:	80000150 	.word	0x80000150
4700074c:	fdf98008 	.word	0xfdf98008

47000750 <sdp_mmc_read_write>:
47000750:	e92d4038 	push	{r3, r4, r5, lr}
47000754:	e1a04003 	mov	r4, r3
47000758:	e3a03203 	mov	r3, #805306368	; 0x30000000
4700075c:	e3500001 	cmp	r0, #1
47000760:	e5932000 	ldr	r2, [r3]
47000764:	e3822006 	orr	r2, r2, #6
47000768:	e5832000 	str	r2, [r3]
4700076c:	e3a02c02 	mov	r2, #512	; 0x200
47000770:	e583201c 	str	r2, [r3, #28]
47000774:	e5834020 	str	r4, [r3, #32]
47000778:	1a000005 	bne	47000794 <sdp_mmc_read_write+0x44>
4700077c:	e1540002 	cmp	r4, r2
47000780:	83a00012 	movhi	r0, #18
47000784:	93a00011 	movls	r0, #17
47000788:	e3800102 	orr	r0, r0, #-2147483648	; 0x80000000
4700078c:	e3800d89 	orr	r0, r0, #8768	; 0x2240
47000790:	ea000007 	b	470007b4 <sdp_mmc_read_write+0x64>
47000794:	e3500002 	cmp	r0, #2
47000798:	159f0074 	ldrne	r0, [pc, #116]	; 47000814 <sdp_mmc_read_write+0xc4>
4700079c:	1a000004 	bne	470007b4 <sdp_mmc_read_write+0x64>
470007a0:	e3540c02 	cmp	r4, #512	; 0x200
470007a4:	83a00019 	movhi	r0, #25
470007a8:	93a00018 	movls	r0, #24
470007ac:	e3800102 	orr	r0, r0, #-2147483648	; 0x80000000
470007b0:	e3800d99 	orr	r0, r0, #9792	; 0x2640
470007b4:	e3540c02 	cmp	r4, #512	; 0x200
470007b8:	83800a01 	orrhi	r0, r0, #4096	; 0x1000
470007bc:	ebffff21 	bl	47000448 <mmc_send_cmd_wait>
470007c0:	e3500000 	cmp	r0, #0
470007c4:	1a000010 	bne	4700080c <sdp_mmc_read_write+0xbc>
470007c8:	e3a03203 	mov	r3, #805306368	; 0x30000000
470007cc:	e59f5044 	ldr	r5, [pc, #68]	; 47000818 <sdp_mmc_read_write+0xc8>
470007d0:	e5933030 	ldr	r3, [r3, #48]	; 0x30
470007d4:	e0035005 	and	r5, r3, r5
470007d8:	e3550000 	cmp	r5, #0
470007dc:	1a00000a 	bne	4700080c <sdp_mmc_read_write+0xbc>
470007e0:	e2800a01 	add	r0, r0, #4096	; 0x1000
470007e4:	ebfffee9 	bl	47000390 <_mmc_wait_for_dto>
470007e8:	e3540c02 	cmp	r4, #512	; 0x200
470007ec:	11a00005 	movne	r0, r5
470007f0:	18bd8038 	popne	{r3, r4, r5, pc}
470007f4:	e59f0020 	ldr	r0, [pc, #32]	; 4700081c <sdp_mmc_read_write+0xcc>
470007f8:	e1a01005 	mov	r1, r5
470007fc:	ebffff11 	bl	47000448 <mmc_send_cmd_wait>
47000800:	e2500000 	subs	r0, r0, #0
47000804:	13a00001 	movne	r0, #1
47000808:	e8bd8038 	pop	{r3, r4, r5, pc}
4700080c:	e3a00001 	mov	r0, #1
47000810:	e8bd8038 	pop	{r3, r4, r5, pc}
47000814:	80002240 	.word	0x80002240
47000818:	fdf98008 	.word	0xfdf98008
4700081c:	8000604c 	.word	0x8000604c

47000820 <sdp_mmc_RW>:
47000820:	e92d40f8 	push	{r3, r4, r5, r6, r7, lr}
47000824:	e1a06000 	mov	r6, r0
47000828:	e3a00c02 	mov	r0, #512	; 0x200
4700082c:	e1a05001 	mov	r5, r1
47000830:	e1a04002 	mov	r4, r2
47000834:	e1a07003 	mov	r7, r3
47000838:	ebffffb4 	bl	47000710 <sdp_mmc_set_block_length>
4700083c:	e3500000 	cmp	r0, #0
47000840:	13010016 	movwne	r0, #4118	; 0x1016
47000844:	18bd80f8 	popne	{r3, r4, r5, r6, r7, pc}
47000848:	e1a01004 	mov	r1, r4
4700084c:	e1a02007 	mov	r2, r7
47000850:	e59f0028 	ldr	r0, [pc, #40]	; 47000880 <sdp_mmc_RW+0x60>
47000854:	ebfffe49 	bl	47000180 <mmc_desc_init>
47000858:	e1a03007 	mov	r3, r7
4700085c:	e1a00006 	mov	r0, r6
47000860:	e1a01005 	mov	r1, r5
47000864:	e1a02004 	mov	r2, r4
47000868:	ebffffb8 	bl	47000750 <sdp_mmc_read_write>
4700086c:	e3013018 	movw	r3, #4120	; 0x1018
47000870:	e3500000 	cmp	r0, #0
47000874:	11a00003 	movne	r0, r3
47000878:	03a00000 	moveq	r0, #0
4700087c:	e8bd80f8 	pop	{r3, r4, r5, r6, r7, pc}
47000880:	47d00000 	.word	0x47d00000

47000884 <sdp_mmc_init>:
47000884:	e92d4010 	push	{r4, lr}
47000888:	ebfffe5f 	bl	4700020c <sdp_mmc_init_controller>
4700088c:	e59f01a8 	ldr	r0, [pc, #424]	; 47000a3c <sdp_mmc_init+0x1b8>
47000890:	ebffff0f 	bl	470004d4 <sdp_mmc_set_clk>
47000894:	ebffff38 	bl	4700057c <sdp_mmc_go_idle_state>
47000898:	e3500000 	cmp	r0, #0
4700089c:	13a03c01 	movne	r3, #256	; 0x100
470008a0:	1a000063 	bne	47000a34 <sdp_mmc_init+0x1b0>
470008a4:	ebffff44 	bl	470005bc <sdp_mmc_send_op_cond>
470008a8:	e3500000 	cmp	r0, #0
470008ac:	13003101 	movwne	r3, #257	; 0x101
470008b0:	1a00005f 	bne	47000a34 <sdp_mmc_init+0x1b0>
470008b4:	ebffff4d 	bl	470005f0 <sdp_mmc_all_send_cid>
470008b8:	e3500000 	cmp	r0, #0
470008bc:	13003102 	movwne	r3, #258	; 0x102
470008c0:	1a00005b 	bne	47000a34 <sdp_mmc_init+0x1b0>
470008c4:	ebffff51 	bl	47000610 <sdp_mmc_send_relative_addr>
470008c8:	e3500000 	cmp	r0, #0
470008cc:	13003103 	movwne	r3, #259	; 0x103
470008d0:	1a000057 	bne	47000a34 <sdp_mmc_init+0x1b0>
470008d4:	ebffff55 	bl	47000630 <sdp_mmc_send_csd>
470008d8:	e3500000 	cmp	r0, #0
470008dc:	13003109 	movwne	r3, #265	; 0x109
470008e0:	1a000053 	bne	47000a34 <sdp_mmc_init+0x1b0>
470008e4:	e3a00001 	mov	r0, #1
470008e8:	ebffff58 	bl	47000650 <sdp_mmc_select_card>
470008ec:	e3500000 	cmp	r0, #0
470008f0:	13003107 	movwne	r3, #263	; 0x107
470008f4:	1a00004e 	bne	47000a34 <sdp_mmc_init+0x1b0>
470008f8:	e3a00445 	mov	r0, #1157627904	; 0x45000000
470008fc:	ebffff66 	bl	4700069c <sdp_mmc_send_ext_csd>
47000900:	e3500000 	cmp	r0, #0
47000904:	13a03f42 	movne	r3, #264	; 0x108
47000908:	1a000049 	bne	47000a34 <sdp_mmc_init+0x1b0>
4700090c:	e3a03446 	mov	r3, #1174405120	; 0x46000000
47000910:	e5830000 	str	r0, [r3]
47000914:	e28334ff 	add	r3, r3, #-16777216	; 0xff000000
47000918:	e5d320d4 	ldrb	r2, [r3, #212]	; 0xd4
4700091c:	e3520000 	cmp	r2, #0
47000920:	1a000009 	bne	4700094c <sdp_mmc_init+0xc8>
47000924:	e5d320d5 	ldrb	r2, [r3, #213]	; 0xd5
47000928:	e3520000 	cmp	r2, #0
4700092c:	1a000006 	bne	4700094c <sdp_mmc_init+0xc8>
47000930:	e5d330d6 	ldrb	r3, [r3, #214]	; 0xd6
47000934:	e3530000 	cmp	r3, #0
47000938:	1a000003 	bne	4700094c <sdp_mmc_init+0xc8>
4700093c:	e2833445 	add	r3, r3, #1157627904	; 0x45000000
47000940:	e5d330d7 	ldrb	r3, [r3, #215]	; 0xd7
47000944:	e3530000 	cmp	r3, #0
47000948:	0a00000c 	beq	47000980 <sdp_mmc_init+0xfc>
4700094c:	e3a03445 	mov	r3, #1157627904	; 0x45000000
47000950:	e5d3c0d6 	ldrb	ip, [r3, #214]	; 0xd6
47000954:	e5d300d5 	ldrb	r0, [r3, #213]	; 0xd5
47000958:	e5d320d7 	ldrb	r2, [r3, #215]	; 0xd7
4700095c:	e5d310d4 	ldrb	r1, [r3, #212]	; 0xd4
47000960:	e1a0380c 	lsl	r3, ip, #16
47000964:	e1833400 	orr	r3, r3, r0, lsl #8
47000968:	e1833001 	orr	r3, r3, r1
4700096c:	e1833c02 	orr	r3, r3, r2, lsl #24
47000970:	e3530501 	cmp	r3, #4194304	; 0x400000
47000974:	83a03446 	movhi	r3, #1174405120	; 0x46000000
47000978:	83a02001 	movhi	r2, #1
4700097c:	85832000 	strhi	r2, [r3]
47000980:	e3a03000 	mov	r3, #0
47000984:	e3a00003 	mov	r0, #3
47000988:	e3a010b7 	mov	r1, #183	; 0xb7
4700098c:	e3a02002 	mov	r2, #2
47000990:	ebffff55 	bl	470006ec <sdp_mmc_switch>
47000994:	e2503000 	subs	r3, r0, #0
47000998:	1a000024 	bne	47000a30 <sdp_mmc_init+0x1ac>
4700099c:	e3a02203 	mov	r2, #805306368	; 0x30000000
470009a0:	e3a01801 	mov	r1, #65536	; 0x10000
470009a4:	e2800003 	add	r0, r0, #3
470009a8:	e5821018 	str	r1, [r2, #24]
470009ac:	e3a010b9 	mov	r1, #185	; 0xb9
470009b0:	e282221d 	add	r2, r2, #-805306367	; 0xd0000001
470009b4:	ebffff4c 	bl	470006ec <sdp_mmc_switch>
470009b8:	e2504000 	subs	r4, r0, #0
470009bc:	1a00001b 	bne	47000a30 <sdp_mmc_init+0x1ac>
470009c0:	e59f0078 	ldr	r0, [pc, #120]	; 47000a40 <sdp_mmc_init+0x1bc>
470009c4:	ebfffec2 	bl	470004d4 <sdp_mmc_set_clk>
470009c8:	e1a03004 	mov	r3, r4
470009cc:	e3a00003 	mov	r0, #3
470009d0:	e3a010b3 	mov	r1, #179	; 0xb3
470009d4:	e3a02049 	mov	r2, #73	; 0x49
470009d8:	ebffff43 	bl	470006ec <sdp_mmc_switch>
470009dc:	e2503000 	subs	r3, r0, #0
470009e0:	1a000012 	bne	47000a30 <sdp_mmc_init+0x1ac>
470009e4:	e3a010b1 	mov	r1, #177	; 0xb1
470009e8:	e2800003 	add	r0, r0, #3
470009ec:	e3a02002 	mov	r2, #2
470009f0:	ebffff3d 	bl	470006ec <sdp_mmc_switch>
470009f4:	e2501000 	subs	r1, r0, #0
470009f8:	1a00000c 	bne	47000a30 <sdp_mmc_init+0x1ac>
470009fc:	e3a03802 	mov	r3, #131072	; 0x20000
47000a00:	e2800001 	add	r0, r0, #1
47000a04:	e3a02447 	mov	r2, #1191182336	; 0x47000000
47000a08:	ebffff84 	bl	47000820 <sdp_mmc_RW>
47000a0c:	e2503000 	subs	r3, r0, #0
47000a10:	1a000007 	bne	47000a34 <sdp_mmc_init+0x1b0>
47000a14:	e2800003 	add	r0, r0, #3
47000a18:	e3a010b3 	mov	r1, #179	; 0xb3
47000a1c:	e3a02048 	mov	r2, #72	; 0x48
47000a20:	ebffff31 	bl	470006ec <sdp_mmc_switch>
47000a24:	e3500000 	cmp	r0, #0
47000a28:	1a000000 	bne	47000a30 <sdp_mmc_init+0x1ac>
47000a2c:	e8bd8010 	pop	{r4, pc}
47000a30:	e3003106 	movw	r3, #262	; 0x106
47000a34:	e1a00003 	mov	r0, r3
47000a38:	e8bd8010 	pop	{r4, pc}
47000a3c:	00061a80 	.word	0x00061a80
47000a40:	05f5e100 	.word	0x05f5e100

47000a44 <__sdp_mmc>:
47000a44:	eaffff8e 	b	47000884 <sdp_mmc_init>
	...

47000c00 <lowlevel_init>:
47000c00:	e1a0d00e 	mov	sp, lr
47000c04:	e59f038c 	ldr	r0, [pc, #908]	; 47000f98 <secure_boot_auth1_bypass+0x8>
47000c08:	e3a010a5 	mov	r1, #165	; 0xa5
47000c0c:	e5801604 	str	r1, [r0, #1540]	; 0x604
47000c10:	e320f000 	nop	{0}
47000c14:	e320f000 	nop	{0}
47000c18:	e320f000 	nop	{0}
47000c1c:	e59f0378 	ldr	r0, [pc, #888]	; 47000f9c <secure_boot_auth1_bypass+0xc>
47000c20:	e5901030 	ldr	r1, [r0, #48]	; 0x30
47000c24:	e3c1100f 	bic	r1, r1, #15
47000c28:	e5801030 	str	r1, [r0, #48]	; 0x30
47000c2c:	e59f036c 	ldr	r0, [pc, #876]	; 47000fa0 <secure_boot_auth1_bypass+0x10>
47000c30:	e59f136c 	ldr	r1, [pc, #876]	; 47000fa4 <secure_boot_auth1_bypass+0x14>
47000c34:	e5801000 	str	r1, [r0]
47000c38:	e59f1368 	ldr	r1, [pc, #872]	; 47000fa8 <secure_boot_auth1_bypass+0x18>
47000c3c:	e5801004 	str	r1, [r0, #4]
47000c40:	e59f1364 	ldr	r1, [pc, #868]	; 47000fac <secure_boot_auth1_bypass+0x1c>
47000c44:	e5801008 	str	r1, [r0, #8]
47000c48:	e59f1354 	ldr	r1, [pc, #852]	; 47000fa4 <secure_boot_auth1_bypass+0x14>
47000c4c:	e580100c 	str	r1, [r0, #12]
47000c50:	e59f1358 	ldr	r1, [pc, #856]	; 47000fb0 <secure_boot_auth1_bypass+0x20>
47000c54:	e5801010 	str	r1, [r0, #16]
47000c58:	e59f1354 	ldr	r1, [pc, #852]	; 47000fb4 <secure_boot_auth1_bypass+0x24>
47000c5c:	e5801014 	str	r1, [r0, #20]
47000c60:	e59f1350 	ldr	r1, [pc, #848]	; 47000fb8 <secure_boot_auth1_bypass+0x28>
47000c64:	e5801018 	str	r1, [r0, #24]
47000c68:	e59f134c 	ldr	r1, [pc, #844]	; 47000fbc <secure_boot_auth1_bypass+0x2c>
47000c6c:	e580101c 	str	r1, [r0, #28]
47000c70:	e59f1348 	ldr	r1, [pc, #840]	; 47000fc0 <secure_boot_auth1_bypass+0x30>
47000c74:	e5801020 	str	r1, [r0, #32]
47000c78:	e59f1344 	ldr	r1, [pc, #836]	; 47000fc4 <secure_boot_auth1_bypass+0x34>
47000c7c:	e5801024 	str	r1, [r0, #36]	; 0x24
47000c80:	e59f1340 	ldr	r1, [pc, #832]	; 47000fc8 <secure_boot_auth1_bypass+0x38>
47000c84:	e5801028 	str	r1, [r0, #40]	; 0x28
47000c88:	e3a01000 	mov	r1, #0
47000c8c:	e580102c 	str	r1, [r0, #44]	; 0x2c
47000c90:	e59f1334 	ldr	r1, [pc, #820]	; 47000fcc <secure_boot_auth1_bypass+0x3c>
47000c94:	e5801030 	str	r1, [r0, #48]	; 0x30
47000c98:	e59f1330 	ldr	r1, [pc, #816]	; 47000fd0 <secure_boot_auth1_bypass+0x40>
47000c9c:	e5801034 	str	r1, [r0, #52]	; 0x34
47000ca0:	e3a01000 	mov	r1, #0
47000ca4:	e5801038 	str	r1, [r0, #56]	; 0x38
47000ca8:	e3a01000 	mov	r1, #0
47000cac:	e580103c 	str	r1, [r0, #60]	; 0x3c
47000cb0:	e3a01a0a 	mov	r1, #40960	; 0xa000
47000cb4:	e5801040 	str	r1, [r0, #64]	; 0x40
47000cb8:	e59f1314 	ldr	r1, [pc, #788]	; 47000fd4 <secure_boot_auth1_bypass+0x44>
47000cbc:	e5801044 	str	r1, [r0, #68]	; 0x44
47000cc0:	e59f1310 	ldr	r1, [pc, #784]	; 47000fd8 <secure_boot_auth1_bypass+0x48>
47000cc4:	e5801048 	str	r1, [r0, #72]	; 0x48
47000cc8:	e59f1308 	ldr	r1, [pc, #776]	; 47000fd8 <secure_boot_auth1_bypass+0x48>
47000ccc:	e580104c 	str	r1, [r0, #76]	; 0x4c
47000cd0:	e59f1300 	ldr	r1, [pc, #768]	; 47000fd8 <secure_boot_auth1_bypass+0x48>
47000cd4:	e5801050 	str	r1, [r0, #80]	; 0x50
47000cd8:	e3a01008 	mov	r1, #8
47000cdc:	e5801054 	str	r1, [r0, #84]	; 0x54
47000ce0:	e3a01008 	mov	r1, #8
47000ce4:	e5801058 	str	r1, [r0, #88]	; 0x58
47000ce8:	e3a01008 	mov	r1, #8
47000cec:	e580105c 	str	r1, [r0, #92]	; 0x5c
47000cf0:	e59f12e4 	ldr	r1, [pc, #740]	; 47000fdc <secure_boot_auth1_bypass+0x4c>
47000cf4:	e5801060 	str	r1, [r0, #96]	; 0x60
47000cf8:	e3a01008 	mov	r1, #8
47000cfc:	e5801064 	str	r1, [r0, #100]	; 0x64
47000d00:	e59f12d8 	ldr	r1, [pc, #728]	; 47000fe0 <secure_boot_auth1_bypass+0x50>
47000d04:	e5801068 	str	r1, [r0, #104]	; 0x68
47000d08:	e3a01008 	mov	r1, #8
47000d0c:	e580106c 	str	r1, [r0, #108]	; 0x6c
47000d10:	e59f12c0 	ldr	r1, [pc, #704]	; 47000fd8 <secure_boot_auth1_bypass+0x48>
47000d14:	e5801070 	str	r1, [r0, #112]	; 0x70
47000d18:	e3a01000 	mov	r1, #0
47000d1c:	e5801074 	str	r1, [r0, #116]	; 0x74
47000d20:	e59f12bc 	ldr	r1, [pc, #700]	; 47000fe4 <secure_boot_auth1_bypass+0x54>
47000d24:	e5801078 	str	r1, [r0, #120]	; 0x78
47000d28:	e59f12b4 	ldr	r1, [pc, #692]	; 47000fe4 <secure_boot_auth1_bypass+0x54>
47000d2c:	e580107c 	str	r1, [r0, #124]	; 0x7c
47000d30:	e59f12ac 	ldr	r1, [pc, #684]	; 47000fe4 <secure_boot_auth1_bypass+0x54>
47000d34:	e5801080 	str	r1, [r0, #128]	; 0x80
47000d38:	e59f12a4 	ldr	r1, [pc, #676]	; 47000fe4 <secure_boot_auth1_bypass+0x54>
47000d3c:	e5801084 	str	r1, [r0, #132]	; 0x84
47000d40:	e59f129c 	ldr	r1, [pc, #668]	; 47000fe4 <secure_boot_auth1_bypass+0x54>
47000d44:	e5801088 	str	r1, [r0, #136]	; 0x88
47000d48:	e59f1294 	ldr	r1, [pc, #660]	; 47000fe4 <secure_boot_auth1_bypass+0x54>
47000d4c:	e580108c 	str	r1, [r0, #140]	; 0x8c
47000d50:	e59f128c 	ldr	r1, [pc, #652]	; 47000fe4 <secure_boot_auth1_bypass+0x54>
47000d54:	e5801090 	str	r1, [r0, #144]	; 0x90
47000d58:	e59f1284 	ldr	r1, [pc, #644]	; 47000fe4 <secure_boot_auth1_bypass+0x54>
47000d5c:	e580109c 	str	r1, [r0, #156]	; 0x9c
47000d60:	e59f127c 	ldr	r1, [pc, #636]	; 47000fe4 <secure_boot_auth1_bypass+0x54>
47000d64:	e58010a0 	str	r1, [r0, #160]	; 0xa0
47000d68:	e59f1274 	ldr	r1, [pc, #628]	; 47000fe4 <secure_boot_auth1_bypass+0x54>
47000d6c:	e58010a4 	str	r1, [r0, #164]	; 0xa4
47000d70:	e59f126c 	ldr	r1, [pc, #620]	; 47000fe4 <secure_boot_auth1_bypass+0x54>
47000d74:	e58010a8 	str	r1, [r0, #168]	; 0xa8
47000d78:	e3a01000 	mov	r1, #0
47000d7c:	e58010b4 	str	r1, [r0, #180]	; 0xb4
47000d80:	e59f1260 	ldr	r1, [pc, #608]	; 47000fe8 <secure_boot_auth1_bypass+0x58>
47000d84:	e58010b0 	str	r1, [r0, #176]	; 0xb0

47000d88 <Locking_PLL1>:
47000d88:	e59010ac 	ldr	r1, [r0, #172]	; 0xac
47000d8c:	e3a020ff 	mov	r2, #255	; 0xff
47000d90:	e0011002 	and	r1, r1, r2
47000d94:	e1510002 	cmp	r1, r2
47000d98:	1afffffa 	bne	47000d88 <Locking_PLL1>
47000d9c:	e320f000 	nop	{0}
47000da0:	e59f01f8 	ldr	r0, [pc, #504]	; 47000fa0 <secure_boot_auth1_bypass+0x10>
47000da4:	e59010a4 	ldr	r1, [r0, #164]	; 0xa4
47000da8:	e3c11032 	bic	r1, r1, #50	; 0x32
47000dac:	e58010a4 	str	r1, [r0, #164]	; 0xa4
47000db0:	e59f11f0 	ldr	r1, [pc, #496]	; 47000fa8 <secure_boot_auth1_bypass+0x18>
47000db4:	e5801004 	str	r1, [r0, #4]
47000db8:	e59f11f4 	ldr	r1, [pc, #500]	; 47000fb4 <secure_boot_auth1_bypass+0x24>
47000dbc:	e5801010 	str	r1, [r0, #16]
47000dc0:	e59f1208 	ldr	r1, [pc, #520]	; 47000fd0 <secure_boot_auth1_bypass+0x40>
47000dc4:	e5801030 	str	r1, [r0, #48]	; 0x30
47000dc8:	e59f11e4 	ldr	r1, [pc, #484]	; 47000fb4 <secure_boot_auth1_bypass+0x24>
47000dcc:	e5801014 	str	r1, [r0, #20]
47000dd0:	e59f11f8 	ldr	r1, [pc, #504]	; 47000fd0 <secure_boot_auth1_bypass+0x40>
47000dd4:	e5801034 	str	r1, [r0, #52]	; 0x34
47000dd8:	e59f11f8 	ldr	r1, [pc, #504]	; 47000fd8 <secure_boot_auth1_bypass+0x48>
47000ddc:	e580104c 	str	r1, [r0, #76]	; 0x4c
47000de0:	e3a01008 	mov	r1, #8
47000de4:	e5801058 	str	r1, [r0, #88]	; 0x58
47000de8:	e3a01008 	mov	r1, #8
47000dec:	e580105c 	str	r1, [r0, #92]	; 0x5c
47000df0:	e59f11ec 	ldr	r1, [pc, #492]	; 47000fe4 <secure_boot_auth1_bypass+0x54>
47000df4:	e5801078 	str	r1, [r0, #120]	; 0x78
47000df8:	e59f11e4 	ldr	r1, [pc, #484]	; 47000fe4 <secure_boot_auth1_bypass+0x54>
47000dfc:	e5801084 	str	r1, [r0, #132]	; 0x84
47000e00:	e59f11dc 	ldr	r1, [pc, #476]	; 47000fe4 <secure_boot_auth1_bypass+0x54>
47000e04:	e5801088 	str	r1, [r0, #136]	; 0x88
47000e08:	e59010a8 	ldr	r1, [r0, #168]	; 0xa8
47000e0c:	e3c11032 	bic	r1, r1, #50	; 0x32
47000e10:	e58010a8 	str	r1, [r0, #168]	; 0xa8
47000e14:	e59010a4 	ldr	r1, [r0, #164]	; 0xa4
47000e18:	e3811032 	orr	r1, r1, #50	; 0x32
47000e1c:	e58010a4 	str	r1, [r0, #164]	; 0xa4
47000e20:	e59f01c4 	ldr	r0, [pc, #452]	; 47000fec <secure_boot_auth1_bypass+0x5c>
47000e24:	e3a01902 	mov	r1, #32768	; 0x8000
47000e28:	e5801014 	str	r1, [r0, #20]
47000e2c:	e59f11bc 	ldr	r1, [pc, #444]	; 47000ff0 <secure_boot_auth1_bypass+0x60>
47000e30:	e5801038 	str	r1, [r0, #56]	; 0x38
47000e34:	e59f11b8 	ldr	r1, [pc, #440]	; 47000ff4 <secure_boot_auth1_bypass+0x64>
47000e38:	e5801034 	str	r1, [r0, #52]	; 0x34
47000e3c:	e3e01000 	mvn	r1, #0
47000e40:	e5801030 	str	r1, [r0, #48]	; 0x30
47000e44:	e59f11ac 	ldr	r1, [pc, #428]	; 47000ff8 <secure_boot_auth1_bypass+0x68>
47000e48:	e5801000 	str	r1, [r0]
47000e4c:	e3a01000 	mov	r1, #0
47000e50:	e5801004 	str	r1, [r0, #4]
47000e54:	e59f11a0 	ldr	r1, [pc, #416]	; 47000ffc <secure_boot_auth1_bypass+0x6c>
47000e58:	e5801008 	str	r1, [r0, #8]
47000e5c:	e59f119c 	ldr	r1, [pc, #412]	; 47001000 <secure_boot_auth1_bypass+0x70>
47000e60:	e580100c 	str	r1, [r0, #12]
47000e64:	e59f1198 	ldr	r1, [pc, #408]	; 47001004 <secure_boot_auth1_bypass+0x74>
47000e68:	e5801054 	str	r1, [r0, #84]	; 0x54
47000e6c:	e3e01266 	mvn	r1, #1610612742	; 0x60000006
47000e70:	e5801058 	str	r1, [r0, #88]	; 0x58
47000e74:	e59f011c 	ldr	r0, [pc, #284]	; 47000f98 <secure_boot_auth1_bypass+0x8>
47000e78:	e59f1188 	ldr	r1, [pc, #392]	; 47001008 <secure_boot_auth1_bypass+0x78>
47000e7c:	e5801c84 	str	r1, [r0, #3204]	; 0xc84
47000e80:	e59f1184 	ldr	r1, [pc, #388]	; 4700100c <secure_boot_auth1_bypass+0x7c>
47000e84:	e5801950 	str	r1, [r0, #2384]	; 0x950
47000e88:	e590194c 	ldr	r1, [r0, #2380]	; 0x94c
47000e8c:	e3c11303 	bic	r1, r1, #201326592	; 0xc000000
47000e90:	e580194c 	str	r1, [r0, #2380]	; 0x94c
47000e94:	e3a010c0 	mov	r1, #192	; 0xc0
47000e98:	e5801c50 	str	r1, [r0, #3152]	; 0xc50
47000e9c:	e59f00f4 	ldr	r0, [pc, #244]	; 47000f98 <secure_boot_auth1_bypass+0x8>
47000ea0:	e59f1168 	ldr	r1, [pc, #360]	; 47001010 <secure_boot_auth1_bypass+0x80>
47000ea4:	e5801cb0 	str	r1, [r0, #3248]	; 0xcb0
47000ea8:	e59f1160 	ldr	r1, [pc, #352]	; 47001010 <secure_boot_auth1_bypass+0x80>
47000eac:	e5801cb4 	str	r1, [r0, #3252]	; 0xcb4
47000eb0:	e59f115c 	ldr	r1, [pc, #348]	; 47001014 <secure_boot_auth1_bypass+0x84>
47000eb4:	e5801cbc 	str	r1, [r0, #3260]	; 0xcbc
47000eb8:	e59f1158 	ldr	r1, [pc, #344]	; 47001018 <secure_boot_auth1_bypass+0x88>
47000ebc:	e5801cb8 	str	r1, [r0, #3256]	; 0xcb8
47000ec0:	e59f00d0 	ldr	r0, [pc, #208]	; 47000f98 <secure_boot_auth1_bypass+0x8>
47000ec4:	e5901db4 	ldr	r1, [r0, #3508]	; 0xdb4
47000ec8:	e3811433 	orr	r1, r1, #855638016	; 0x33000000
47000ecc:	e5801db4 	str	r1, [r0, #3508]	; 0xdb4
47000ed0:	e5901db8 	ldr	r1, [r0, #3512]	; 0xdb8
47000ed4:	e38110c0 	orr	r1, r1, #192	; 0xc0
47000ed8:	e5801db8 	str	r1, [r0, #3512]	; 0xdb8
47000edc:	e59f00b4 	ldr	r0, [pc, #180]	; 47000f98 <secure_boot_auth1_bypass+0x8>
47000ee0:	e5901c5c 	ldr	r1, [r0, #3164]	; 0xc5c
47000ee4:	e3c11003 	bic	r1, r1, #3
47000ee8:	e5801c5c 	str	r1, [r0, #3164]	; 0xc5c
47000eec:	e5901d00 	ldr	r1, [r0, #3328]	; 0xd00
47000ef0:	e3811033 	orr	r1, r1, #51	; 0x33
47000ef4:	e5801d00 	str	r1, [r0, #3328]	; 0xd00
47000ef8:	e5901d04 	ldr	r1, [r0, #3332]	; 0xd04
47000efc:	e3c11003 	bic	r1, r1, #3
47000f00:	e5801d04 	str	r1, [r0, #3332]	; 0xd04
47000f04:	e5901d0c 	ldr	r1, [r0, #3340]	; 0xd0c
47000f08:	e3811030 	orr	r1, r1, #48	; 0x30
47000f0c:	e5801d0c 	str	r1, [r0, #3340]	; 0xd0c
47000f10:	e5901d10 	ldr	r1, [r0, #3344]	; 0xd10
47000f14:	e3811002 	orr	r1, r1, #2
47000f18:	e5801d10 	str	r1, [r0, #3344]	; 0xd10
47000f1c:	e5901d48 	ldr	r1, [r0, #3400]	; 0xd48
47000f20:	e3811003 	orr	r1, r1, #3
47000f24:	e5801d48 	str	r1, [r0, #3400]	; 0xd48
47000f28:	e5901d4c 	ldr	r1, [r0, #3404]	; 0xd4c
47000f2c:	e3811001 	orr	r1, r1, #1
47000f30:	e5801d4c 	str	r1, [r0, #3404]	; 0xd4c
47000f34:	e5901d48 	ldr	r1, [r0, #3400]	; 0xd48
47000f38:	e3811030 	orr	r1, r1, #48	; 0x30
47000f3c:	e5801d48 	str	r1, [r0, #3400]	; 0xd48
47000f40:	e5901d4c 	ldr	r1, [r0, #3404]	; 0xd4c
47000f44:	e3c11002 	bic	r1, r1, #2
47000f48:	e5801d4c 	str	r1, [r0, #3404]	; 0xd4c
47000f4c:	e3a01001 	mov	r1, #1
47000f50:	e5801c54 	str	r1, [r0, #3156]	; 0xc54

47000f54 <secure_boot_auth1>:
47000f54:	e59f00c0 	ldr	r0, [pc, #192]	; 4700101c <secure_boot_auth1_bypass+0x8c>
47000f58:	e59f10c0 	ldr	r1, [pc, #192]	; 47001020 <secure_boot_auth1_bypass+0x90>
47000f5c:	e5912038 	ldr	r2, [r1, #56]	; 0x38
47000f60:	e2122001 	ands	r2, r2, #1
47000f64:	1a000009 	bne	47000f90 <secure_boot_auth1_bypass>
47000f68:	e59f10b4 	ldr	r1, [pc, #180]	; 47001024 <secure_boot_auth1_bypass+0x94>
47000f6c:	e5801404 	str	r1, [r0, #1028]	; 0x404
47000f70:	e3a01011 	mov	r1, #17
47000f74:	e5801408 	str	r1, [r0, #1032]	; 0x408
47000f78:	e59f20a8 	ldr	r2, [pc, #168]	; 47001028 <secure_boot_auth1_bypass+0x98>
47000f7c:	e5901400 	ldr	r1, [r0, #1024]	; 0x400
47000f80:	e1510002 	cmp	r1, r2
47000f84:	1afffff2 	bne	47000f54 <secure_boot_auth1>
47000f88:	e59f109c 	ldr	r1, [pc, #156]	; 4700102c <secure_boot_auth1_bypass+0x9c>
47000f8c:	e5801414 	str	r1, [r0, #1044]	; 0x414

47000f90 <secure_boot_auth1_bypass>:
47000f90:	e3a03000 	mov	r3, #0
47000f94:	ea000109 	b	470013c0 <ddr_a_setup>
47000f98:	30090000 	.word	0x30090000
47000f9c:	30b70000 	.word	0x30b70000
47000fa0:	30090800 	.word	0x30090800
47000fa4:	00307d00 	.word	0x00307d00
47000fa8:	00308c00 	.word	0x00308c00
47000fac:	00306400 	.word	0x00306400
47000fb0:	00307803 	.word	0x00307803
47000fb4:	00308303 	.word	0x00308303
47000fb8:	00308402 	.word	0x00308402
47000fbc:	00306c05 	.word	0x00306c05
47000fc0:	00307500 	.word	0x00307500
47000fc4:	00306001 	.word	0x00306001
47000fc8:	00305c01 	.word	0x00305c01
47000fcc:	00006c17 	.word	0x00006c17
47000fd0:	0000126f 	.word	0x0000126f
47000fd4:	0000d99a 	.word	0x0000d99a
47000fd8:	10380001 	.word	0x10380001
47000fdc:	19072408 	.word	0x19072408
47000fe0:	1d050408 	.word	0x1d050408
47000fe4:	00007fff 	.word	0x00007fff
47000fe8:	000005ff 	.word	0x000005ff
47000fec:	30090900 	.word	0x30090900
47000ff0:	b8008ff7 	.word	0xb8008ff7
47000ff4:	0011ff8e 	.word	0x0011ff8e
47000ff8:	0007ffff 	.word	0x0007ffff
47000ffc:	00012299 	.word	0x00012299
47001000:	00004222 	.word	0x00004222
47001004:	67fdffff 	.word	0x67fdffff
47001008:	0000c0c5 	.word	0x0000c0c5
4700100c:	000003ff 	.word	0x000003ff
47001010:	7b30dc95 	.word	0x7b30dc95
47001014:	00000909 	.word	0x00000909
47001018:	0e050e05 	.word	0x0e050e05
4700101c:	303e8000 	.word	0x303e8000
47001020:	303f0000 	.word	0x303f0000
47001024:	00001ff0 	.word	0x00001ff0
47001028:	22220002 	.word	0x22220002
4700102c:	01161703 	.word	0x01161703

47001030 <sw_training>:
47001030:	e3a04000 	mov	r4, #0
47001034:	e58f4250 	str	r4, [pc, #592]	; 4700128c <slice_num>
47001038:	e58f4254 	str	r4, [pc, #596]	; 47001294 <left_right_index>
4700103c:	e58f424c 	str	r4, [pc, #588]	; 47001290 <wr_index>
47001040:	e59f4244 	ldr	r4, [pc, #580]	; 4700128c <slice_num>
47001044:	e59f524c 	ldr	r5, [pc, #588]	; 47001298 <lcdl_base>
47001048:	e59f624c 	ldr	r6, [pc, #588]	; 4700129c <ddr_base>
4700104c:	e59f722c 	ldr	r7, [pc, #556]	; 47001280 <sw_training+0x250>
47001050:	e59f822c 	ldr	r8, [pc, #556]	; 47001284 <sw_training+0x254>
47001054:	e3540000 	cmp	r4, #0
47001058:	00805007 	addeq	r5, r0, r7
4700105c:	02826000 	addeq	r6, r2, #0
47001060:	0a00000a 	beq	47001090 <sw_training+0x60>
47001064:	e3540001 	cmp	r4, #1
47001068:	00805008 	addeq	r5, r0, r8
4700106c:	02826004 	addeq	r6, r2, #4
47001070:	0a000006 	beq	47001090 <sw_training+0x60>
47001074:	e3540002 	cmp	r4, #2
47001078:	00815007 	addeq	r5, r1, r7
4700107c:	02836000 	addeq	r6, r3, #0
47001080:	0a000002 	beq	47001090 <sw_training+0x60>
47001084:	e3540003 	cmp	r4, #3
47001088:	00815008 	addeq	r5, r1, r8
4700108c:	02836004 	addeq	r6, r3, #4
47001090:	e59f81fc 	ldr	r8, [pc, #508]	; 47001294 <left_right_index>
47001094:	e3580000 	cmp	r8, #0
47001098:	059f81f0 	ldreq	r8, [pc, #496]	; 47001290 <wr_index>
4700109c:	03580000 	cmpeq	r8, #0
470010a0:	059f8218 	ldreq	r8, [pc, #536]	; 470012c0 <save_value>
470010a4:	0595a000 	ldreq	sl, [r5]
470010a8:	0488a004 	streq	sl, [r8], #4
470010ac:	058f820c 	streq	r8, [pc, #524]	; 470012c0 <save_value>
470010b0:	e58f51e0 	str	r5, [pc, #480]	; 47001298 <lcdl_base>
470010b4:	e58f61e0 	str	r6, [pc, #480]	; 4700129c <ddr_base>
470010b8:	e3a04001 	mov	r4, #1
470010bc:	e58f41dc 	str	r4, [pc, #476]	; 470012a0 <loop_state>
470010c0:	e59f41c8 	ldr	r4, [pc, #456]	; 47001290 <wr_index>
470010c4:	e59f91c8 	ldr	r9, [pc, #456]	; 47001294 <left_right_index>
470010c8:	e59fa1dc 	ldr	sl, [pc, #476]	; 470012ac <loop_index>
470010cc:	e59fb1d0 	ldr	fp, [pc, #464]	; 470012a4 <wdq_ref>
470010d0:	e59f81d0 	ldr	r8, [pc, #464]	; 470012a8 <rdqs_ref>
470010d4:	e3540000 	cmp	r4, #0
470010d8:	1a00000d 	bne	47001114 <sw_training+0xe4>
470010dc:	e3590000 	cmp	r9, #0
470010e0:	1a000008 	bne	47001108 <sw_training+0xd8>
470010e4:	e5955000 	ldr	r5, [r5]
470010e8:	e7e7b055 	ubfx	fp, r5, #0, #8
470010ec:	e7e78455 	ubfx	r8, r5, #8, #8
470010f0:	e35b0015 	cmp	fp, #21
470010f4:	a3a0b009 	movge	fp, #9
470010f8:	e24ba001 	sub	sl, fp, #1
470010fc:	e58fb1a0 	str	fp, [pc, #416]	; 470012a4 <wdq_ref>
47001100:	e58f81a0 	str	r8, [pc, #416]	; 470012a8 <rdqs_ref>
47001104:	ea000000 	b	4700110c <sw_training+0xdc>
47001108:	128ba001 	addne	sl, fp, #1
4700110c:	e58fa198 	str	sl, [pc, #408]	; 470012ac <loop_index>
47001110:	ea000008 	b	47001138 <sw_training+0x108>
47001114:	e3590000 	cmp	r9, #0
47001118:	05955000 	ldreq	r5, [r5]
4700111c:	07e7b055 	ubfxeq	fp, r5, #0, #8
47001120:	07e78455 	ubfxeq	r8, r5, #8, #8
47001124:	0248a001 	subeq	sl, r8, #1
47001128:	058fb174 	streq	fp, [pc, #372]	; 470012a4 <wdq_ref>
4700112c:	058f8174 	streq	r8, [pc, #372]	; 470012a8 <rdqs_ref>
47001130:	1288a001 	addne	sl, r8, #1
47001134:	e58fa170 	str	sl, [pc, #368]	; 470012ac <loop_index>
47001138:	e59f5160 	ldr	r5, [pc, #352]	; 470012a0 <loop_state>
4700113c:	e3540000 	cmp	r4, #0
47001140:	059fb160 	ldreq	fp, [pc, #352]	; 470012a8 <rdqs_ref>
47001144:	008a680b 	addeq	r6, sl, fp, lsl #16
47001148:	0086640b 	addeq	r6, r6, fp, lsl #8
4700114c:	059fb150 	ldreq	fp, [pc, #336]	; 470012a4 <wdq_ref>
47001150:	108b680a 	addne	r6, fp, sl, lsl #16
47001154:	1086640a 	addne	r6, r6, sl, lsl #8
47001158:	e59f7138 	ldr	r7, [pc, #312]	; 47001298 <lcdl_base>
4700115c:	e59f8138 	ldr	r8, [pc, #312]	; 4700129c <ddr_base>
47001160:	e5876000 	str	r6, [r7]
47001164:	e59f911c 	ldr	r9, [pc, #284]	; 47001288 <sw_training+0x258>
47001168:	e3a0b000 	mov	fp, #0
4700116c:	e588b000 	str	fp, [r8]
47001170:	e5889000 	str	r9, [r8]
47001174:	e5986000 	ldr	r6, [r8]
47001178:	e1560009 	cmp	r6, r9
4700117c:	1a00000c 	bne	470011b4 <sw_training+0x184>
47001180:	e28bb001 	add	fp, fp, #1
47001184:	e35b0c01 	cmp	fp, #256	; 0x100
47001188:	bafffff7 	blt	4700116c <sw_training+0x13c>
4700118c:	e35a0000 	cmp	sl, #0
47001190:	03a05000 	moveq	r5, #0
47001194:	058f5104 	streq	r5, [pc, #260]	; 470012a0 <loop_state>
47001198:	0a000004 	beq	470011b0 <sw_training+0x180>
4700119c:	e59f90f0 	ldr	r9, [pc, #240]	; 47001294 <left_right_index>
470011a0:	e3590000 	cmp	r9, #0
470011a4:	028aa001 	addeq	sl, sl, #1
470011a8:	124aa001 	subne	sl, sl, #1
470011ac:	e58fa0f8 	str	sl, [pc, #248]	; 470012ac <loop_index>
470011b0:	ea000001 	b	470011bc <sw_training+0x18c>
470011b4:	e3a05000 	mov	r5, #0
470011b8:	e58f50e0 	str	r5, [pc, #224]	; 470012a0 <loop_state>
470011bc:	e3550001 	cmp	r5, #1
470011c0:	0affffdc 	beq	47001138 <sw_training+0x108>
470011c4:	e59f90c8 	ldr	r9, [pc, #200]	; 47001294 <left_right_index>
470011c8:	e59fb0d4 	ldr	fp, [pc, #212]	; 470012a4 <wdq_ref>
470011cc:	e3590000 	cmp	r9, #0
470011d0:	028a5001 	addeq	r5, sl, #1
470011d4:	058f50d8 	streq	r5, [pc, #216]	; 470012b4 <left_value>
470011d8:	03a09001 	moveq	r9, #1
470011dc:	0a000021 	beq	47001268 <sw_training+0x238>
470011e0:	e59f50cc 	ldr	r5, [pc, #204]	; 470012b4 <left_value>
470011e4:	e24a7001 	sub	r7, sl, #1
470011e8:	e58f70c8 	str	r7, [pc, #200]	; 470012b8 <right_value>
470011ec:	e59fa0b4 	ldr	sl, [pc, #180]	; 470012a8 <rdqs_ref>
470011f0:	e0856007 	add	r6, r5, r7
470011f4:	e1a060a6 	lsr	r6, r6, #1
470011f8:	e3540000 	cmp	r4, #0
470011fc:	01a0b006 	moveq	fp, r6
47001200:	058fb09c 	streq	fp, [pc, #156]	; 470012a4 <wdq_ref>
47001204:	11a0a006 	movne	sl, r6
47001208:	158fa098 	strne	sl, [pc, #152]	; 470012a8 <rdqs_ref>
4700120c:	e08b840a 	add	r8, fp, sl, lsl #8
47001210:	e088880a 	add	r8, r8, sl, lsl #16
47001214:	e59fa07c 	ldr	sl, [pc, #124]	; 47001298 <lcdl_base>
47001218:	e58a8000 	str	r8, [sl]
4700121c:	e3a09000 	mov	r9, #0
47001220:	e3540001 	cmp	r4, #1
47001224:	059f8094 	ldreq	r8, [pc, #148]	; 470012c0 <save_value>
47001228:	059fa05c 	ldreq	sl, [pc, #92]	; 4700128c <slice_num>
4700122c:	0488a004 	streq	sl, [r8], #4
47001230:	059fa07c 	ldreq	sl, [pc, #124]	; 470012b4 <left_value>
47001234:	0488a004 	streq	sl, [r8], #4
47001238:	059fa078 	ldreq	sl, [pc, #120]	; 470012b8 <right_value>
4700123c:	0488a004 	streq	sl, [r8], #4
47001240:	059fa060 	ldreq	sl, [pc, #96]	; 470012a8 <rdqs_ref>
47001244:	0488a004 	streq	sl, [r8], #4
47001248:	059fa054 	ldreq	sl, [pc, #84]	; 470012a4 <wdq_ref>
4700124c:	0488a004 	streq	sl, [r8], #4
47001250:	058f8068 	streq	r8, [pc, #104]	; 470012c0 <save_value>
47001254:	059f8030 	ldreq	r8, [pc, #48]	; 4700128c <slice_num>
47001258:	02888001 	addeq	r8, r8, #1
4700125c:	058f8028 	streq	r8, [pc, #40]	; 4700128c <slice_num>
47001260:	03a04000 	moveq	r4, #0
47001264:	13a04001 	movne	r4, #1
47001268:	e58f4020 	str	r4, [pc, #32]	; 47001290 <wr_index>
4700126c:	e58f9020 	str	r9, [pc, #32]	; 47001294 <left_right_index>
47001270:	e59f4014 	ldr	r4, [pc, #20]	; 4700128c <slice_num>
47001274:	e3540004 	cmp	r4, #4
47001278:	baffff70 	blt	47001040 <sw_training+0x10>
4700127c:	e1a0f00e 	mov	pc, lr
47001280:	000005e4 	.word	0x000005e4
47001284:	00000624 	.word	0x00000624
47001288:	a55aa55a 	.word	0xa55aa55a

4700128c <slice_num>:
4700128c:	00000000 	.word	0x00000000

47001290 <wr_index>:
47001290:	00000001 	.word	0x00000001

47001294 <left_right_index>:
47001294:	00000000 	.word	0x00000000

47001298 <lcdl_base>:
47001298:	00000000 	.word	0x00000000

4700129c <ddr_base>:
4700129c:	00000000 	.word	0x00000000

470012a0 <loop_state>:
470012a0:	00000001 	.word	0x00000001

470012a4 <wdq_ref>:
470012a4:	00000000 	.word	0x00000000

470012a8 <rdqs_ref>:
470012a8:	00000000 	.word	0x00000000

470012ac <loop_index>:
470012ac:	00000000 	.word	0x00000000

470012b0 <lcdl_value>:
470012b0:	00000000 	.word	0x00000000

470012b4 <left_value>:
470012b4:	00000000 	.word	0x00000000

470012b8 <right_value>:
470012b8:	00000000 	.word	0x00000000

470012bc <center_value>:
470012bc:	00000000 	.word	0x00000000

470012c0 <save_value>:
470012c0:	30100800 	.word	0x30100800

470012c4 <set_acparam>:
470012c4:	e3a01b07 	mov	r1, #7168	; 0x1c00
470012c8:	e58014a8 	str	r1, [r0, #1192]	; 0x4a8
470012cc:	e3a01027 	mov	r1, #39	; 0x27
470012d0:	e58010d0 	str	r1, [r0, #208]	; 0xd0
470012d4:	e3a01004 	mov	r1, #4
470012d8:	e58010d4 	str	r1, [r0, #212]	; 0xd4
470012dc:	e3a01096 	mov	r1, #150	; 0x96
470012e0:	e58010d8 	str	r1, [r0, #216]	; 0xd8
470012e4:	e3a0100d 	mov	r1, #13
470012e8:	e58010dc 	str	r1, [r0, #220]	; 0xdc
470012ec:	e3a01000 	mov	r1, #0
470012f0:	e58010e4 	str	r1, [r0, #228]	; 0xe4
470012f4:	e3a0100d 	mov	r1, #13
470012f8:	e58010e8 	str	r1, [r0, #232]	; 0xe8
470012fc:	e3a01009 	mov	r1, #9
47001300:	e58010ec 	str	r1, [r0, #236]	; 0xec
47001304:	e3a01020 	mov	r1, #32
47001308:	e58010f0 	str	r1, [r0, #240]	; 0xf0
4700130c:	e3a0102d 	mov	r1, #45	; 0x2d
47001310:	e58010f4 	str	r1, [r0, #244]	; 0xf4
47001314:	e3a0100d 	mov	r1, #13
47001318:	e58010f8 	str	r1, [r0, #248]	; 0xf8
4700131c:	e3a01006 	mov	r1, #6
47001320:	e58010fc 	str	r1, [r0, #252]	; 0xfc
47001324:	e3a01007 	mov	r1, #7
47001328:	e5801100 	str	r1, [r0, #256]	; 0x100
4700132c:	e3a0100e 	mov	r1, #14
47001330:	e5801104 	str	r1, [r0, #260]	; 0x104
47001334:	e3a01007 	mov	r1, #7
47001338:	e5801108 	str	r1, [r0, #264]	; 0x108
4700133c:	e3a01c02 	mov	r1, #512	; 0x200
47001340:	e580110c 	str	r1, [r0, #268]	; 0x10c
47001344:	e3a01006 	mov	r1, #6
47001348:	e5801110 	str	r1, [r0, #272]	; 0x110
4700134c:	e3a01001 	mov	r1, #1
47001350:	e5801120 	str	r1, [r0, #288]	; 0x120
47001354:	e3a01004 	mov	r1, #4
47001358:	e58010e0 	str	r1, [r0, #224]	; 0xe0
4700135c:	e3a0100a 	mov	r1, #10
47001360:	e5801124 	str	r1, [r0, #292]	; 0x124
47001364:	e3a0100a 	mov	r1, #10
47001368:	e5801128 	str	r1, [r0, #296]	; 0x128
4700136c:	e3a0100e 	mov	r1, #14
47001370:	e5801130 	str	r1, [r0, #304]	; 0x130
47001374:	e3a01005 	mov	r1, #5
47001378:	e580112c 	str	r1, [r0, #300]	; 0x12c
4700137c:	e3a0105e 	mov	r1, #94	; 0x5e
47001380:	e5801134 	str	r1, [r0, #308]	; 0x134
47001384:	e3a0104b 	mov	r1, #75	; 0x4b
47001388:	e5801118 	str	r1, [r0, #280]	; 0x118
4700138c:	e3a01c02 	mov	r1, #512	; 0x200
47001390:	e5801138 	str	r1, [r0, #312]	; 0x138
47001394:	e3a01017 	mov	r1, #23
47001398:	e5801114 	str	r1, [r0, #276]	; 0x114
4700139c:	e3a01005 	mov	r1, #5
470013a0:	e580111c 	str	r1, [r0, #284]	; 0x11c
470013a4:	e59f1b4c 	ldr	r1, [pc, #2892]	; 47001ef8 <finished1+0x18>
470013a8:	e5801090 	str	r1, [r0, #144]	; 0x90
470013ac:	e1a0f00e 	mov	pc, lr

470013b0 <wait_cmd>:
470013b0:	e5901040 	ldr	r1, [r0, #64]	; 0x40
470013b4:	e2111102 	ands	r1, r1, #-2147483648	; 0x80000000
470013b8:	1afffffc 	bne	470013b0 <wait_cmd>
470013bc:	e1a0f00e 	mov	pc, lr

470013c0 <ddr_a_setup>:
470013c0:	e59f0b34 	ldr	r0, [pc, #2868]	; 47001efc <finished1+0x1c>
470013c4:	e59f1b34 	ldr	r1, [pc, #2868]	; 47001f00 <finished1+0x20>
470013c8:	e5801434 	str	r1, [r0, #1076]	; 0x434
470013cc:	e59f1b30 	ldr	r1, [pc, #2864]	; 47001f04 <finished1+0x24>
470013d0:	e5801540 	str	r1, [r0, #1344]	; 0x540
470013d4:	e3a01000 	mov	r1, #0
470013d8:	e5801544 	str	r1, [r0, #1348]	; 0x544
470013dc:	e59f1b24 	ldr	r1, [pc, #2852]	; 47001f08 <finished1+0x28>
470013e0:	e580131c 	str	r1, [r0, #796]	; 0x31c
470013e4:	e59f1b20 	ldr	r1, [pc, #2848]	; 47001f0c <finished1+0x2c>
470013e8:	e5801080 	str	r1, [r0, #128]	; 0x80
470013ec:	e3a01008 	mov	r1, #8
470013f0:	e580108c 	str	r1, [r0, #140]	; 0x8c
470013f4:	e3a010e9 	mov	r1, #233	; 0xe9
470013f8:	e58010c0 	str	r1, [r0, #192]	; 0xc0
470013fc:	e3a010c8 	mov	r1, #200	; 0xc8
47001400:	e58010c4 	str	r1, [r0, #196]	; 0xc4
47001404:	e3a01017 	mov	r1, #23
47001408:	e58010cc 	str	r1, [r0, #204]	; 0xcc
4700140c:	e3a01f7d 	mov	r1, #500	; 0x1f4
47001410:	e58010c8 	str	r1, [r0, #200]	; 0xc8
47001414:	e59f1af4 	ldr	r1, [pc, #2804]	; 47001f10 <finished1+0x30>
47001418:	e5801404 	str	r1, [r0, #1028]	; 0x404
4700141c:	e59f1af0 	ldr	r1, [pc, #2800]	; 47001f14 <finished1+0x34>
47001420:	e580141c 	str	r1, [r0, #1052]	; 0x41c
47001424:	e59f1aec 	ldr	r1, [pc, #2796]	; 47001f18 <finished1+0x38>
47001428:	e5801420 	str	r1, [r0, #1056]	; 0x420
4700142c:	e59f1ae8 	ldr	r1, [pc, #2792]	; 47001f1c <finished1+0x3c>
47001430:	e5801424 	str	r1, [r0, #1060]	; 0x424
47001434:	e3a01907 	mov	r1, #114688	; 0x1c000
47001438:	e5801418 	str	r1, [r0, #1048]	; 0x418
4700143c:	e59f1adc 	ldr	r1, [pc, #2780]	; 47001f20 <finished1+0x40>
47001440:	e5801404 	str	r1, [r0, #1028]	; 0x404
47001444:	e59f1ad8 	ldr	r1, [pc, #2776]	; 47001f24 <finished1+0x44>
47001448:	e580140c 	str	r1, [r0, #1036]	; 0x40c
4700144c:	e5901410 	ldr	r1, [r0, #1040]	; 0x410
47001450:	e2011007 	and	r1, r1, #7
47001454:	e3510007 	cmp	r1, #7
47001458:	1afffffb 	bne	4700144c <ddr_a_setup+0x8c>
4700145c:	e3a01001 	mov	r1, #1
47001460:	e5801044 	str	r1, [r0, #68]	; 0x44
47001464:	e5901048 	ldr	r1, [r0, #72]	; 0x48
47001468:	e2011001 	and	r1, r1, #1
4700146c:	e3510001 	cmp	r1, #1
47001470:	1afffffb 	bne	47001464 <ddr_a_setup+0xa4>
47001474:	ebffff92 	bl	470012c4 <set_acparam>
47001478:	e3a01021 	mov	r1, #33	; 0x21
4700147c:	e5801000 	str	r1, [r0]
47001480:	e59f1aa0 	ldr	r1, [pc, #2720]	; 47001f28 <finished1+0x48>
47001484:	e5801040 	str	r1, [r0, #64]	; 0x40
47001488:	e5901040 	ldr	r1, [r0, #64]	; 0x40
4700148c:	e2011102 	and	r1, r1, #-2147483648	; 0x80000000
47001490:	e3510000 	cmp	r1, #0
47001494:	1afffffb 	bne	47001488 <ddr_a_setup+0xc8>
47001498:	e59f1a8c 	ldr	r1, [pc, #2700]	; 47001f2c <finished1+0x4c>
4700149c:	e5801040 	str	r1, [r0, #64]	; 0x40
470014a0:	e5901040 	ldr	r1, [r0, #64]	; 0x40
470014a4:	e2011102 	and	r1, r1, #-2147483648	; 0x80000000
470014a8:	e3510000 	cmp	r1, #0
470014ac:	1afffffb 	bne	470014a0 <ddr_a_setup+0xe0>
470014b0:	e59f1a78 	ldr	r1, [pc, #2680]	; 47001f30 <finished1+0x50>
470014b4:	e5801040 	str	r1, [r0, #64]	; 0x40
470014b8:	e5901040 	ldr	r1, [r0, #64]	; 0x40
470014bc:	e2011102 	and	r1, r1, #-2147483648	; 0x80000000
470014c0:	e3510000 	cmp	r1, #0
470014c4:	1afffffb 	bne	470014b8 <ddr_a_setup+0xf8>
470014c8:	e59f1a64 	ldr	r1, [pc, #2660]	; 47001f34 <finished1+0x54>
470014cc:	e5801040 	str	r1, [r0, #64]	; 0x40
470014d0:	e5901040 	ldr	r1, [r0, #64]	; 0x40
470014d4:	e2011102 	and	r1, r1, #-2147483648	; 0x80000000
470014d8:	e3510000 	cmp	r1, #0
470014dc:	1afffffb 	bne	470014d0 <ddr_a_setup+0x110>
470014e0:	e59f1a50 	ldr	r1, [pc, #2640]	; 47001f38 <finished1+0x58>
470014e4:	e5801040 	str	r1, [r0, #64]	; 0x40
470014e8:	e5901040 	ldr	r1, [r0, #64]	; 0x40
470014ec:	e2011102 	and	r1, r1, #-2147483648	; 0x80000000
470014f0:	e3510000 	cmp	r1, #0
470014f4:	1afffffb 	bne	470014e8 <ddr_a_setup+0x128>
470014f8:	e59f1a3c 	ldr	r1, [pc, #2620]	; 47001f3c <finished1+0x5c>
470014fc:	e5801040 	str	r1, [r0, #64]	; 0x40
47001500:	e5901040 	ldr	r1, [r0, #64]	; 0x40
47001504:	e2011102 	and	r1, r1, #-2147483648	; 0x80000000
47001508:	e3510000 	cmp	r1, #0
4700150c:	1afffffb 	bne	47001500 <ddr_a_setup+0x140>
47001510:	e3a01001 	mov	r1, #1
47001514:	e5801004 	str	r1, [r0, #4]
47001518:	e5901008 	ldr	r1, [r0, #8]
4700151c:	e2011007 	and	r1, r1, #7
47001520:	e3510001 	cmp	r1, #1
47001524:	1afffffb 	bne	47001518 <ddr_a_setup+0x158>
47001528:	e3a01008 	mov	r1, #8
4700152c:	e580142c 	str	r1, [r0, #1068]	; 0x42c
47001530:	e59f1a08 	ldr	r1, [pc, #2568]	; 47001f40 <finished1+0x60>
47001534:	e58014ac 	str	r1, [r0, #1196]	; 0x4ac
47001538:	e3a01004 	mov	r1, #4
4700153c:	e580148c 	str	r1, [r0, #1164]	; 0x48c
47001540:	e59f19fc 	ldr	r1, [pc, #2556]	; 47001f44 <finished1+0x64>
47001544:	e5801484 	str	r1, [r0, #1156]	; 0x484
47001548:	e5901484 	ldr	r1, [r0, #1156]	; 0x484
4700154c:	e2011807 	and	r1, r1, #458752	; 0x70000
47001550:	e3510807 	cmp	r1, #458752	; 0x70000
47001554:	1afffffb 	bne	47001548 <ddr_a_setup+0x188>
47001558:	e59025e4 	ldr	r2, [r0, #1508]	; 0x5e4
4700155c:	e5903624 	ldr	r3, [r0, #1572]	; 0x624
47001560:	e5904664 	ldr	r4, [r0, #1636]	; 0x664
47001564:	e59056a4 	ldr	r5, [r0, #1700]	; 0x6a4
47001568:	e20220ff 	and	r2, r2, #255	; 0xff
4700156c:	e20330ff 	and	r3, r3, #255	; 0xff
47001570:	e20440ff 	and	r4, r4, #255	; 0xff
47001574:	e20550ff 	and	r5, r5, #255	; 0xff
47001578:	e1520003 	cmp	r2, r3
4700157c:	c1a06003 	movgt	r6, r3
47001580:	d1a06002 	movle	r6, r2
47001584:	e1560004 	cmp	r6, r4
47001588:	c1a06004 	movgt	r6, r4
4700158c:	e1560005 	cmp	r6, r5
47001590:	c1a06005 	movgt	r6, r5
47001594:	e0865006 	add	r5, r6, r6
47001598:	e2455005 	sub	r5, r5, #5
4700159c:	e1a05c05 	lsl	r5, r5, #24
470015a0:	e3e024ff 	mvn	r2, #-16777216	; 0xff000000
470015a4:	e1855002 	orr	r5, r5, r2
470015a8:	e59f6998 	ldr	r6, [pc, #2456]	; 47001f48 <finished1+0x68>
470015ac:	e3e020ff 	mvn	r2, #255	; 0xff
470015b0:	e1827004 	orr	r7, r2, r4
470015b4:	e0058006 	and	r8, r5, r6
470015b8:	e0088007 	and	r8, r8, r7
470015bc:	e58084b4 	str	r8, [r0, #1204]	; 0x4b4
470015c0:	e59f1984 	ldr	r1, [pc, #2436]	; 47001f4c <finished1+0x6c>
470015c4:	e5801484 	str	r1, [r0, #1156]	; 0x484
470015c8:	e59f2980 	ldr	r2, [pc, #2432]	; 47001f50 <finished1+0x70>
470015cc:	e5901484 	ldr	r1, [r0, #1156]	; 0x484
470015d0:	e0011002 	and	r1, r1, r2
470015d4:	e1510002 	cmp	r1, r2
470015d8:	1afffffb 	bne	470015cc <ddr_a_setup+0x20c>
470015dc:	e59f1970 	ldr	r1, [pc, #2416]	; 47001f54 <finished1+0x74>
470015e0:	e5801300 	str	r1, [r0, #768]	; 0x300
470015e4:	e3a01008 	mov	r1, #8
470015e8:	e5801308 	str	r1, [r0, #776]	; 0x308
470015ec:	e3a01004 	mov	r1, #4
470015f0:	e580130c 	str	r1, [r0, #780]	; 0x30c
470015f4:	e3a01008 	mov	r1, #8
470015f8:	e5801310 	str	r1, [r0, #784]	; 0x310
470015fc:	e3a01004 	mov	r1, #4
47001600:	e5801314 	str	r1, [r0, #788]	; 0x314
47001604:	e3a01000 	mov	r1, #0
47001608:	e5801318 	str	r1, [r0, #792]	; 0x318
4700160c:	e3a01003 	mov	r1, #3
47001610:	e5801320 	str	r1, [r0, #800]	; 0x320
47001614:	e3a01003 	mov	r1, #3
47001618:	e5801324 	str	r1, [r0, #804]	; 0x324
4700161c:	e3a01000 	mov	r1, #0
47001620:	e5801328 	str	r1, [r0, #808]	; 0x328
47001624:	e3a01002 	mov	r1, #2
47001628:	e5801004 	str	r1, [r0, #4]
4700162c:	e5901008 	ldr	r1, [r0, #8]
47001630:	e2011007 	and	r1, r1, #7
47001634:	e3510003 	cmp	r1, #3
47001638:	1afffffb 	bne	4700162c <ddr_a_setup+0x26c>
4700163c:	e3a005c1 	mov	r0, #809500672	; 0x30400000
47001640:	e3a01000 	mov	r1, #0
47001644:	e5801008 	str	r1, [r0, #8]
47001648:	e3a01000 	mov	r1, #0
4700164c:	e580100c 	str	r1, [r0, #12]
47001650:	e59f1900 	ldr	r1, [pc, #2304]	; 47001f58 <finished1+0x78>
47001654:	e5801010 	str	r1, [r0, #16]
47001658:	e3a01000 	mov	r1, #0
4700165c:	e5801014 	str	r1, [r0, #20]
47001660:	e3a01000 	mov	r1, #0
47001664:	e5801018 	str	r1, [r0, #24]
47001668:	e3a01000 	mov	r1, #0
4700166c:	e580101c 	str	r1, [r0, #28]
47001670:	e59f18e4 	ldr	r1, [pc, #2276]	; 47001f5c <finished1+0x7c>
47001674:	e5801020 	str	r1, [r0, #32]
47001678:	e3a01000 	mov	r1, #0
4700167c:	e5801024 	str	r1, [r0, #36]	; 0x24
47001680:	e59f18d8 	ldr	r1, [pc, #2264]	; 47001f60 <finished1+0x80>
47001684:	e5801028 	str	r1, [r0, #40]	; 0x28
47001688:	e59f18d0 	ldr	r1, [pc, #2256]	; 47001f60 <finished1+0x80>
4700168c:	e580102c 	str	r1, [r0, #44]	; 0x2c

47001690 <ddr_b_setup>:
47001690:	e59f08cc 	ldr	r0, [pc, #2252]	; 47001f64 <finished1+0x84>
47001694:	e3a01030 	mov	r1, #48	; 0x30
47001698:	e5801000 	str	r1, [r0]
4700169c:	e59f08c4 	ldr	r0, [pc, #2244]	; 47001f68 <finished1+0x88>
470016a0:	e3a01038 	mov	r1, #56	; 0x38
470016a4:	e5801000 	str	r1, [r0]
470016a8:	e59f08b4 	ldr	r0, [pc, #2228]	; 47001f64 <finished1+0x84>
470016ac:	e59f184c 	ldr	r1, [pc, #2124]	; 47001f00 <finished1+0x20>
470016b0:	e5801434 	str	r1, [r0, #1076]	; 0x434
470016b4:	e59f18b0 	ldr	r1, [pc, #2224]	; 47001f6c <finished1+0x8c>
470016b8:	e5801540 	str	r1, [r0, #1344]	; 0x540
470016bc:	e3a01000 	mov	r1, #0
470016c0:	e5801544 	str	r1, [r0, #1348]	; 0x544
470016c4:	e59f183c 	ldr	r1, [pc, #2108]	; 47001f08 <finished1+0x28>
470016c8:	e580131c 	str	r1, [r0, #796]	; 0x31c
470016cc:	e59f1838 	ldr	r1, [pc, #2104]	; 47001f0c <finished1+0x2c>
470016d0:	e5801080 	str	r1, [r0, #128]	; 0x80
470016d4:	e3a01008 	mov	r1, #8
470016d8:	e580108c 	str	r1, [r0, #140]	; 0x8c
470016dc:	e3a010e9 	mov	r1, #233	; 0xe9
470016e0:	e58010c0 	str	r1, [r0, #192]	; 0xc0
470016e4:	e3a010c8 	mov	r1, #200	; 0xc8
470016e8:	e58010c4 	str	r1, [r0, #196]	; 0xc4
470016ec:	e3a01017 	mov	r1, #23
470016f0:	e58010cc 	str	r1, [r0, #204]	; 0xcc
470016f4:	e3a01f7d 	mov	r1, #500	; 0x1f4
470016f8:	e58010c8 	str	r1, [r0, #200]	; 0xc8
470016fc:	e59f0864 	ldr	r0, [pc, #2148]	; 47001f68 <finished1+0x88>
47001700:	e59f17f8 	ldr	r1, [pc, #2040]	; 47001f00 <finished1+0x20>
47001704:	e5801434 	str	r1, [r0, #1076]	; 0x434
47001708:	e59f17f4 	ldr	r1, [pc, #2036]	; 47001f04 <finished1+0x24>
4700170c:	e5801540 	str	r1, [r0, #1344]	; 0x540
47001710:	e3a01000 	mov	r1, #0
47001714:	e5801544 	str	r1, [r0, #1348]	; 0x544
47001718:	e59f17e8 	ldr	r1, [pc, #2024]	; 47001f08 <finished1+0x28>
4700171c:	e580131c 	str	r1, [r0, #796]	; 0x31c
47001720:	e59f17e4 	ldr	r1, [pc, #2020]	; 47001f0c <finished1+0x2c>
47001724:	e5801080 	str	r1, [r0, #128]	; 0x80
47001728:	e3a01008 	mov	r1, #8
4700172c:	e580108c 	str	r1, [r0, #140]	; 0x8c
47001730:	e3a010e9 	mov	r1, #233	; 0xe9
47001734:	e58010c0 	str	r1, [r0, #192]	; 0xc0
47001738:	e3a010c8 	mov	r1, #200	; 0xc8
4700173c:	e58010c4 	str	r1, [r0, #196]	; 0xc4
47001740:	e3a01017 	mov	r1, #23
47001744:	e58010cc 	str	r1, [r0, #204]	; 0xcc
47001748:	e3a01f7d 	mov	r1, #500	; 0x1f4
4700174c:	e58010c8 	str	r1, [r0, #200]	; 0xc8
47001750:	e59f080c 	ldr	r0, [pc, #2060]	; 47001f64 <finished1+0x84>
47001754:	e59f17b4 	ldr	r1, [pc, #1972]	; 47001f10 <finished1+0x30>
47001758:	e5801404 	str	r1, [r0, #1028]	; 0x404
4700175c:	e59f17b0 	ldr	r1, [pc, #1968]	; 47001f14 <finished1+0x34>
47001760:	e580141c 	str	r1, [r0, #1052]	; 0x41c
47001764:	e59f17ac 	ldr	r1, [pc, #1964]	; 47001f18 <finished1+0x38>
47001768:	e5801420 	str	r1, [r0, #1056]	; 0x420
4700176c:	e59f17a8 	ldr	r1, [pc, #1960]	; 47001f1c <finished1+0x3c>
47001770:	e5801424 	str	r1, [r0, #1060]	; 0x424
47001774:	e3a01907 	mov	r1, #114688	; 0x1c000
47001778:	e5801418 	str	r1, [r0, #1048]	; 0x418
4700177c:	e59f17ec 	ldr	r1, [pc, #2028]	; 47001f70 <finished1+0x90>
47001780:	e5801404 	str	r1, [r0, #1028]	; 0x404
47001784:	e59f1798 	ldr	r1, [pc, #1944]	; 47001f24 <finished1+0x44>
47001788:	e580140c 	str	r1, [r0, #1036]	; 0x40c
4700178c:	e59f07d4 	ldr	r0, [pc, #2004]	; 47001f68 <finished1+0x88>
47001790:	e59f1778 	ldr	r1, [pc, #1912]	; 47001f10 <finished1+0x30>
47001794:	e5801404 	str	r1, [r0, #1028]	; 0x404
47001798:	e59f1774 	ldr	r1, [pc, #1908]	; 47001f14 <finished1+0x34>
4700179c:	e580141c 	str	r1, [r0, #1052]	; 0x41c
470017a0:	e59f1770 	ldr	r1, [pc, #1904]	; 47001f18 <finished1+0x38>
470017a4:	e5801420 	str	r1, [r0, #1056]	; 0x420
470017a8:	e59f176c 	ldr	r1, [pc, #1900]	; 47001f1c <finished1+0x3c>
470017ac:	e5801424 	str	r1, [r0, #1060]	; 0x424
470017b0:	e3a01907 	mov	r1, #114688	; 0x1c000
470017b4:	e5801418 	str	r1, [r0, #1048]	; 0x418
470017b8:	e59f17b0 	ldr	r1, [pc, #1968]	; 47001f70 <finished1+0x90>
470017bc:	e5801404 	str	r1, [r0, #1028]	; 0x404
470017c0:	e59f1758 	ldr	r1, [pc, #1880]	; 47001f20 <finished1+0x40>
470017c4:	e5801404 	str	r1, [r0, #1028]	; 0x404
470017c8:	e59f1754 	ldr	r1, [pc, #1876]	; 47001f24 <finished1+0x44>
470017cc:	e580140c 	str	r1, [r0, #1036]	; 0x40c
470017d0:	e59f078c 	ldr	r0, [pc, #1932]	; 47001f64 <finished1+0x84>
470017d4:	e59f1744 	ldr	r1, [pc, #1860]	; 47001f20 <finished1+0x40>
470017d8:	e5801404 	str	r1, [r0, #1028]	; 0x404
470017dc:	e59f0784 	ldr	r0, [pc, #1924]	; 47001f68 <finished1+0x88>
470017e0:	e5901404 	ldr	r1, [r0, #1028]	; 0x404
470017e4:	e2011001 	and	r1, r1, #1
470017e8:	e3510000 	cmp	r1, #0
470017ec:	1afffffb 	bne	470017e0 <ddr_b_setup+0x150>
470017f0:	e59f076c 	ldr	r0, [pc, #1900]	; 47001f64 <finished1+0x84>
470017f4:	e5901404 	ldr	r1, [r0, #1028]	; 0x404
470017f8:	e2011001 	and	r1, r1, #1
470017fc:	e3510000 	cmp	r1, #0
47001800:	1afffffb 	bne	470017f4 <ddr_b_setup+0x164>
47001804:	e5901410 	ldr	r1, [r0, #1040]	; 0x410
47001808:	e2011007 	and	r1, r1, #7
4700180c:	e3510007 	cmp	r1, #7
47001810:	1afffffb 	bne	47001804 <ddr_b_setup+0x174>
47001814:	e3a01001 	mov	r1, #1
47001818:	e5801044 	str	r1, [r0, #68]	; 0x44
4700181c:	e5901048 	ldr	r1, [r0, #72]	; 0x48
47001820:	e2011001 	and	r1, r1, #1
47001824:	e3510001 	cmp	r1, #1
47001828:	1afffffb 	bne	4700181c <ddr_b_setup+0x18c>
4700182c:	ebfffea4 	bl	470012c4 <set_acparam>
47001830:	e3a01031 	mov	r1, #49	; 0x31
47001834:	e5801000 	str	r1, [r0]
47001838:	e59f0728 	ldr	r0, [pc, #1832]	; 47001f68 <finished1+0x88>
4700183c:	ebfffea0 	bl	470012c4 <set_acparam>
47001840:	e3a01039 	mov	r1, #57	; 0x39
47001844:	e5801000 	str	r1, [r0]
47001848:	e59f0714 	ldr	r0, [pc, #1812]	; 47001f64 <finished1+0x84>
4700184c:	e59f16d4 	ldr	r1, [pc, #1748]	; 47001f28 <finished1+0x48>
47001850:	e5801040 	str	r1, [r0, #64]	; 0x40
47001854:	e5901040 	ldr	r1, [r0, #64]	; 0x40
47001858:	e2011102 	and	r1, r1, #-2147483648	; 0x80000000
4700185c:	e3510000 	cmp	r1, #0
47001860:	1afffffb 	bne	47001854 <ddr_b_setup+0x1c4>
47001864:	e59f16c0 	ldr	r1, [pc, #1728]	; 47001f2c <finished1+0x4c>
47001868:	e5801040 	str	r1, [r0, #64]	; 0x40
4700186c:	e5901040 	ldr	r1, [r0, #64]	; 0x40
47001870:	e2011102 	and	r1, r1, #-2147483648	; 0x80000000
47001874:	e3510000 	cmp	r1, #0
47001878:	1afffffb 	bne	4700186c <ddr_b_setup+0x1dc>
4700187c:	e59f16ac 	ldr	r1, [pc, #1708]	; 47001f30 <finished1+0x50>
47001880:	e5801040 	str	r1, [r0, #64]	; 0x40
47001884:	e5901040 	ldr	r1, [r0, #64]	; 0x40
47001888:	e2011102 	and	r1, r1, #-2147483648	; 0x80000000
4700188c:	e3510000 	cmp	r1, #0
47001890:	1afffffb 	bne	47001884 <ddr_b_setup+0x1f4>
47001894:	e59f1698 	ldr	r1, [pc, #1688]	; 47001f34 <finished1+0x54>
47001898:	e5801040 	str	r1, [r0, #64]	; 0x40
4700189c:	e5901040 	ldr	r1, [r0, #64]	; 0x40
470018a0:	e2011102 	and	r1, r1, #-2147483648	; 0x80000000
470018a4:	e3510000 	cmp	r1, #0
470018a8:	1afffffb 	bne	4700189c <ddr_b_setup+0x20c>
470018ac:	e59f1684 	ldr	r1, [pc, #1668]	; 47001f38 <finished1+0x58>
470018b0:	e5801040 	str	r1, [r0, #64]	; 0x40
470018b4:	e5901040 	ldr	r1, [r0, #64]	; 0x40
470018b8:	e2011102 	and	r1, r1, #-2147483648	; 0x80000000
470018bc:	e3510000 	cmp	r1, #0
470018c0:	1afffffb 	bne	470018b4 <ddr_b_setup+0x224>
470018c4:	e59f1670 	ldr	r1, [pc, #1648]	; 47001f3c <finished1+0x5c>
470018c8:	e5801040 	str	r1, [r0, #64]	; 0x40
470018cc:	e5901040 	ldr	r1, [r0, #64]	; 0x40
470018d0:	e2011102 	and	r1, r1, #-2147483648	; 0x80000000
470018d4:	e3510000 	cmp	r1, #0
470018d8:	1afffffb 	bne	470018cc <ddr_b_setup+0x23c>
470018dc:	e59f0684 	ldr	r0, [pc, #1668]	; 47001f68 <finished1+0x88>
470018e0:	e59f1640 	ldr	r1, [pc, #1600]	; 47001f28 <finished1+0x48>
470018e4:	e5801040 	str	r1, [r0, #64]	; 0x40
470018e8:	e5901040 	ldr	r1, [r0, #64]	; 0x40
470018ec:	e2011102 	and	r1, r1, #-2147483648	; 0x80000000
470018f0:	e3510000 	cmp	r1, #0
470018f4:	1afffffb 	bne	470018e8 <ddr_b_setup+0x258>
470018f8:	e59f162c 	ldr	r1, [pc, #1580]	; 47001f2c <finished1+0x4c>
470018fc:	e5801040 	str	r1, [r0, #64]	; 0x40
47001900:	e5901040 	ldr	r1, [r0, #64]	; 0x40
47001904:	e2011102 	and	r1, r1, #-2147483648	; 0x80000000
47001908:	e3510000 	cmp	r1, #0
4700190c:	1afffffb 	bne	47001900 <ddr_b_setup+0x270>
47001910:	e59f1618 	ldr	r1, [pc, #1560]	; 47001f30 <finished1+0x50>
47001914:	e5801040 	str	r1, [r0, #64]	; 0x40
47001918:	e5901040 	ldr	r1, [r0, #64]	; 0x40
4700191c:	e2011102 	and	r1, r1, #-2147483648	; 0x80000000
47001920:	e3510000 	cmp	r1, #0
47001924:	1afffffb 	bne	47001918 <ddr_b_setup+0x288>
47001928:	e59f1604 	ldr	r1, [pc, #1540]	; 47001f34 <finished1+0x54>
4700192c:	e5801040 	str	r1, [r0, #64]	; 0x40
47001930:	e5901040 	ldr	r1, [r0, #64]	; 0x40
47001934:	e2011102 	and	r1, r1, #-2147483648	; 0x80000000
47001938:	e3510000 	cmp	r1, #0
4700193c:	1afffffb 	bne	47001930 <ddr_b_setup+0x2a0>
47001940:	e59f15f0 	ldr	r1, [pc, #1520]	; 47001f38 <finished1+0x58>
47001944:	e5801040 	str	r1, [r0, #64]	; 0x40
47001948:	e5901040 	ldr	r1, [r0, #64]	; 0x40
4700194c:	e2011102 	and	r1, r1, #-2147483648	; 0x80000000
47001950:	e3510000 	cmp	r1, #0
47001954:	1afffffb 	bne	47001948 <ddr_b_setup+0x2b8>
47001958:	e59f15dc 	ldr	r1, [pc, #1500]	; 47001f3c <finished1+0x5c>
4700195c:	e5801040 	str	r1, [r0, #64]	; 0x40
47001960:	e5901040 	ldr	r1, [r0, #64]	; 0x40
47001964:	e2011102 	and	r1, r1, #-2147483648	; 0x80000000
47001968:	e3510000 	cmp	r1, #0
4700196c:	1afffffb 	bne	47001960 <ddr_b_setup+0x2d0>
47001970:	e59f05ec 	ldr	r0, [pc, #1516]	; 47001f64 <finished1+0x84>
47001974:	e3a01001 	mov	r1, #1
47001978:	e5801004 	str	r1, [r0, #4]
4700197c:	e5901008 	ldr	r1, [r0, #8]
47001980:	e2011007 	and	r1, r1, #7
47001984:	e3510001 	cmp	r1, #1
47001988:	1afffffb 	bne	4700197c <ddr_b_setup+0x2ec>
4700198c:	e59f05d4 	ldr	r0, [pc, #1492]	; 47001f68 <finished1+0x88>
47001990:	e3a01001 	mov	r1, #1
47001994:	e5801004 	str	r1, [r0, #4]
47001998:	e5901008 	ldr	r1, [r0, #8]
4700199c:	e2011007 	and	r1, r1, #7
470019a0:	e3510001 	cmp	r1, #1
470019a4:	1afffffb 	bne	47001998 <ddr_b_setup+0x308>
470019a8:	e59f05b4 	ldr	r0, [pc, #1460]	; 47001f64 <finished1+0x84>
470019ac:	e59f15c0 	ldr	r1, [pc, #1472]	; 47001f74 <finished1+0x94>
470019b0:	e580142c 	str	r1, [r0, #1068]	; 0x42c
470019b4:	e59f1584 	ldr	r1, [pc, #1412]	; 47001f40 <finished1+0x60>
470019b8:	e58014ac 	str	r1, [r0, #1196]	; 0x4ac
470019bc:	e59f05a4 	ldr	r0, [pc, #1444]	; 47001f68 <finished1+0x88>
470019c0:	e59f1578 	ldr	r1, [pc, #1400]	; 47001f40 <finished1+0x60>
470019c4:	e58014ac 	str	r1, [r0, #1196]	; 0x4ac
470019c8:	e59f0594 	ldr	r0, [pc, #1428]	; 47001f64 <finished1+0x84>
470019cc:	e3a01004 	mov	r1, #4
470019d0:	e580148c 	str	r1, [r0, #1164]	; 0x48c
470019d4:	e59f1568 	ldr	r1, [pc, #1384]	; 47001f44 <finished1+0x64>
470019d8:	e5801484 	str	r1, [r0, #1156]	; 0x484
470019dc:	e5901484 	ldr	r1, [r0, #1156]	; 0x484
470019e0:	e2011807 	and	r1, r1, #458752	; 0x70000
470019e4:	e3510807 	cmp	r1, #458752	; 0x70000
470019e8:	1afffffb 	bne	470019dc <ddr_b_setup+0x34c>
470019ec:	e59025e4 	ldr	r2, [r0, #1508]	; 0x5e4
470019f0:	e5903624 	ldr	r3, [r0, #1572]	; 0x624
470019f4:	e20220ff 	and	r2, r2, #255	; 0xff
470019f8:	e20330ff 	and	r3, r3, #255	; 0xff
470019fc:	e1520003 	cmp	r2, r3
47001a00:	c1a04003 	movgt	r4, r3
47001a04:	d1a04002 	movle	r4, r2
47001a08:	e0845004 	add	r5, r4, r4
47001a0c:	e2455005 	sub	r5, r5, #5
47001a10:	e1a05c05 	lsl	r5, r5, #24
47001a14:	e3e024ff 	mvn	r2, #-16777216	; 0xff000000
47001a18:	e1855002 	orr	r5, r5, r2
47001a1c:	e59f6524 	ldr	r6, [pc, #1316]	; 47001f48 <finished1+0x68>
47001a20:	e3e020ff 	mvn	r2, #255	; 0xff
47001a24:	e1827004 	orr	r7, r2, r4
47001a28:	e0058006 	and	r8, r5, r6
47001a2c:	e0088007 	and	r8, r8, r7
47001a30:	e58084b4 	str	r8, [r0, #1204]	; 0x4b4
47001a34:	e59f1510 	ldr	r1, [pc, #1296]	; 47001f4c <finished1+0x6c>
47001a38:	e5801484 	str	r1, [r0, #1156]	; 0x484
47001a3c:	e59f0524 	ldr	r0, [pc, #1316]	; 47001f68 <finished1+0x88>
47001a40:	e3a01004 	mov	r1, #4
47001a44:	e580148c 	str	r1, [r0, #1164]	; 0x48c
47001a48:	e59f14f4 	ldr	r1, [pc, #1268]	; 47001f44 <finished1+0x64>
47001a4c:	e5801484 	str	r1, [r0, #1156]	; 0x484
47001a50:	e5901484 	ldr	r1, [r0, #1156]	; 0x484
47001a54:	e2011807 	and	r1, r1, #458752	; 0x70000
47001a58:	e3510807 	cmp	r1, #458752	; 0x70000
47001a5c:	1afffffb 	bne	47001a50 <ddr_b_setup+0x3c0>
47001a60:	e59025e4 	ldr	r2, [r0, #1508]	; 0x5e4
47001a64:	e5903624 	ldr	r3, [r0, #1572]	; 0x624
47001a68:	e20220ff 	and	r2, r2, #255	; 0xff
47001a6c:	e20330ff 	and	r3, r3, #255	; 0xff
47001a70:	e1520003 	cmp	r2, r3
47001a74:	c1a04003 	movgt	r4, r3
47001a78:	d1a04002 	movle	r4, r2
47001a7c:	e0845004 	add	r5, r4, r4
47001a80:	e2455005 	sub	r5, r5, #5
47001a84:	e1a05c05 	lsl	r5, r5, #24
47001a88:	e3e024ff 	mvn	r2, #-16777216	; 0xff000000
47001a8c:	e1855002 	orr	r5, r5, r2
47001a90:	e59f64b0 	ldr	r6, [pc, #1200]	; 47001f48 <finished1+0x68>
47001a94:	e3e020ff 	mvn	r2, #255	; 0xff
47001a98:	e1827004 	orr	r7, r2, r4
47001a9c:	e0058006 	and	r8, r5, r6
47001aa0:	e0088007 	and	r8, r8, r7
47001aa4:	e58084b4 	str	r8, [r0, #1204]	; 0x4b4
47001aa8:	e59f149c 	ldr	r1, [pc, #1180]	; 47001f4c <finished1+0x6c>
47001aac:	e5801484 	str	r1, [r0, #1156]	; 0x484
47001ab0:	e59f04ac 	ldr	r0, [pc, #1196]	; 47001f64 <finished1+0x84>
47001ab4:	e59f2494 	ldr	r2, [pc, #1172]	; 47001f50 <finished1+0x70>
47001ab8:	e5901484 	ldr	r1, [r0, #1156]	; 0x484
47001abc:	e0011002 	and	r1, r1, r2
47001ac0:	e1510002 	cmp	r1, r2
47001ac4:	1afffffb 	bne	47001ab8 <ddr_b_setup+0x428>
47001ac8:	e59f0498 	ldr	r0, [pc, #1176]	; 47001f68 <finished1+0x88>
47001acc:	e59f247c 	ldr	r2, [pc, #1148]	; 47001f50 <finished1+0x70>
47001ad0:	e5901484 	ldr	r1, [r0, #1156]	; 0x484
47001ad4:	e0011002 	and	r1, r1, r2
47001ad8:	e1510002 	cmp	r1, r2
47001adc:	1afffffb 	bne	47001ad0 <ddr_b_setup+0x440>
47001ae0:	e59f047c 	ldr	r0, [pc, #1148]	; 47001f64 <finished1+0x84>
47001ae4:	e59f1468 	ldr	r1, [pc, #1128]	; 47001f54 <finished1+0x74>
47001ae8:	e5801300 	str	r1, [r0, #768]	; 0x300
47001aec:	e3a01008 	mov	r1, #8
47001af0:	e5801308 	str	r1, [r0, #776]	; 0x308
47001af4:	e3a01004 	mov	r1, #4
47001af8:	e580130c 	str	r1, [r0, #780]	; 0x30c
47001afc:	e3a01008 	mov	r1, #8
47001b00:	e5801310 	str	r1, [r0, #784]	; 0x310
47001b04:	e3a01004 	mov	r1, #4
47001b08:	e5801314 	str	r1, [r0, #788]	; 0x314
47001b0c:	e3a01000 	mov	r1, #0
47001b10:	e5801318 	str	r1, [r0, #792]	; 0x318
47001b14:	e3a01003 	mov	r1, #3
47001b18:	e5801320 	str	r1, [r0, #800]	; 0x320
47001b1c:	e3a01003 	mov	r1, #3
47001b20:	e5801324 	str	r1, [r0, #804]	; 0x324
47001b24:	e3a01000 	mov	r1, #0
47001b28:	e5801328 	str	r1, [r0, #808]	; 0x328
47001b2c:	e59f0434 	ldr	r0, [pc, #1076]	; 47001f68 <finished1+0x88>
47001b30:	e59f141c 	ldr	r1, [pc, #1052]	; 47001f54 <finished1+0x74>
47001b34:	e5801300 	str	r1, [r0, #768]	; 0x300
47001b38:	e3a01008 	mov	r1, #8
47001b3c:	e5801308 	str	r1, [r0, #776]	; 0x308
47001b40:	e3a01004 	mov	r1, #4
47001b44:	e580130c 	str	r1, [r0, #780]	; 0x30c
47001b48:	e3a01008 	mov	r1, #8
47001b4c:	e5801310 	str	r1, [r0, #784]	; 0x310
47001b50:	e3a01004 	mov	r1, #4
47001b54:	e5801314 	str	r1, [r0, #788]	; 0x314
47001b58:	e3a01000 	mov	r1, #0
47001b5c:	e5801318 	str	r1, [r0, #792]	; 0x318
47001b60:	e3a01003 	mov	r1, #3
47001b64:	e5801320 	str	r1, [r0, #800]	; 0x320
47001b68:	e3a01003 	mov	r1, #3
47001b6c:	e5801324 	str	r1, [r0, #804]	; 0x324
47001b70:	e3a01000 	mov	r1, #0
47001b74:	e5801328 	str	r1, [r0, #808]	; 0x328
47001b78:	e59f03e4 	ldr	r0, [pc, #996]	; 47001f64 <finished1+0x84>
47001b7c:	e3a01002 	mov	r1, #2
47001b80:	e5801004 	str	r1, [r0, #4]
47001b84:	e5901008 	ldr	r1, [r0, #8]
47001b88:	e2011007 	and	r1, r1, #7
47001b8c:	e3510003 	cmp	r1, #3
47001b90:	1afffffb 	bne	47001b84 <ddr_b_setup+0x4f4>
47001b94:	e59f03cc 	ldr	r0, [pc, #972]	; 47001f68 <finished1+0x88>
47001b98:	e3a01002 	mov	r1, #2
47001b9c:	e5801004 	str	r1, [r0, #4]
47001ba0:	e5901008 	ldr	r1, [r0, #8]
47001ba4:	e2011007 	and	r1, r1, #7
47001ba8:	e3510003 	cmp	r1, #3
47001bac:	1afffffb 	bne	47001ba0 <ddr_b_setup+0x510>
47001bb0:	e59f0344 	ldr	r0, [pc, #836]	; 47001efc <finished1+0x1c>
47001bb4:	e59f13bc 	ldr	r1, [pc, #956]	; 47001f78 <finished1+0x98>
47001bb8:	e3a02101 	mov	r2, #1073741824	; 0x40000000
47001bbc:	e3a03121 	mov	r3, #1073741832	; 0x40000008
47001bc0:	ebfffd1a 	bl	47001030 <sw_training>
47001bc4:	e59f0398 	ldr	r0, [pc, #920]	; 47001f64 <finished1+0x84>
47001bc8:	e59f1398 	ldr	r1, [pc, #920]	; 47001f68 <finished1+0x88>
47001bcc:	e3a02102 	mov	r2, #-2147483648	; 0x80000000
47001bd0:	e3a0320a 	mov	r3, #-1610612736	; 0xa0000000
47001bd4:	ebfffd15 	bl	47001030 <sw_training>
47001bd8:	e59f031c 	ldr	r0, [pc, #796]	; 47001efc <finished1+0x1c>
47001bdc:	e59015e4 	ldr	r1, [r0, #1508]	; 0x5e4
47001be0:	e3a02001 	mov	r2, #1
47001be4:	e0411002 	sub	r1, r1, r2
47001be8:	e58015e4 	str	r1, [r0, #1508]	; 0x5e4
47001bec:	e5901624 	ldr	r1, [r0, #1572]	; 0x624
47001bf0:	e3a02001 	mov	r2, #1
47001bf4:	e0411002 	sub	r1, r1, r2
47001bf8:	e5801624 	str	r1, [r0, #1572]	; 0x624
47001bfc:	e5901664 	ldr	r1, [r0, #1636]	; 0x664
47001c00:	e3a02001 	mov	r2, #1
47001c04:	e0411002 	sub	r1, r1, r2
47001c08:	e5801664 	str	r1, [r0, #1636]	; 0x664
47001c0c:	e59016a4 	ldr	r1, [r0, #1700]	; 0x6a4
47001c10:	e3a02001 	mov	r2, #1
47001c14:	e0411002 	sub	r1, r1, r2
47001c18:	e58016a4 	str	r1, [r0, #1700]	; 0x6a4
47001c1c:	e59f0340 	ldr	r0, [pc, #832]	; 47001f64 <finished1+0x84>
47001c20:	e59015e4 	ldr	r1, [r0, #1508]	; 0x5e4
47001c24:	e3a02001 	mov	r2, #1
47001c28:	e0411002 	sub	r1, r1, r2
47001c2c:	e58015e4 	str	r1, [r0, #1508]	; 0x5e4
47001c30:	e59015e4 	ldr	r1, [r0, #1508]	; 0x5e4
47001c34:	e59f2340 	ldr	r2, [pc, #832]	; 47001f7c <finished1+0x9c>
47001c38:	e0811002 	add	r1, r1, r2
47001c3c:	e58015e4 	str	r1, [r0, #1508]	; 0x5e4
47001c40:	e5901624 	ldr	r1, [r0, #1572]	; 0x624
47001c44:	e3a02001 	mov	r2, #1
47001c48:	e0411002 	sub	r1, r1, r2
47001c4c:	e5801624 	str	r1, [r0, #1572]	; 0x624
47001c50:	e5901624 	ldr	r1, [r0, #1572]	; 0x624
47001c54:	e59f2324 	ldr	r2, [pc, #804]	; 47001f80 <finished1+0xa0>
47001c58:	e0811002 	add	r1, r1, r2
47001c5c:	e5801624 	str	r1, [r0, #1572]	; 0x624
47001c60:	e59f0300 	ldr	r0, [pc, #768]	; 47001f68 <finished1+0x88>
47001c64:	e59015e4 	ldr	r1, [r0, #1508]	; 0x5e4
47001c68:	e3a02001 	mov	r2, #1
47001c6c:	e0411002 	sub	r1, r1, r2
47001c70:	e58015e4 	str	r1, [r0, #1508]	; 0x5e4
47001c74:	e5901624 	ldr	r1, [r0, #1572]	; 0x624
47001c78:	e3a02001 	mov	r2, #1
47001c7c:	e0411002 	sub	r1, r1, r2
47001c80:	e5801624 	str	r1, [r0, #1572]	; 0x624
47001c84:	e59f0270 	ldr	r0, [pc, #624]	; 47001efc <finished1+0x1c>
47001c88:	e3a01001 	mov	r1, #1
47001c8c:	e5801004 	str	r1, [r0, #4]
47001c90:	e5901008 	ldr	r1, [r0, #8]
47001c94:	e2011007 	and	r1, r1, #7
47001c98:	e3510001 	cmp	r1, #1
47001c9c:	1afffffb 	bne	47001c90 <ddr_b_setup+0x600>
47001ca0:	e59f12dc 	ldr	r1, [pc, #732]	; 47001f84 <finished1+0xa4>
47001ca4:	e5801484 	str	r1, [r0, #1156]	; 0x484
47001ca8:	e59f22a0 	ldr	r2, [pc, #672]	; 47001f50 <finished1+0x70>
47001cac:	e5901484 	ldr	r1, [r0, #1156]	; 0x484
47001cb0:	e0011002 	and	r1, r1, r2
47001cb4:	e1510002 	cmp	r1, r2
47001cb8:	1afffffb 	bne	47001cac <ddr_b_setup+0x61c>
47001cbc:	e5901404 	ldr	r1, [r0, #1028]	; 0x404
47001cc0:	e3e02201 	mvn	r2, #268435456	; 0x10000000
47001cc4:	e0011002 	and	r1, r1, r2
47001cc8:	e5801404 	str	r1, [r0, #1028]	; 0x404
47001ccc:	e3a01002 	mov	r1, #2
47001cd0:	e5801004 	str	r1, [r0, #4]
47001cd4:	e5901008 	ldr	r1, [r0, #8]
47001cd8:	e2011007 	and	r1, r1, #7
47001cdc:	e3510003 	cmp	r1, #3
47001ce0:	1afffffb 	bne	47001cd4 <ddr_b_setup+0x644>
47001ce4:	e59f0278 	ldr	r0, [pc, #632]	; 47001f64 <finished1+0x84>
47001ce8:	e3a01001 	mov	r1, #1
47001cec:	e5801004 	str	r1, [r0, #4]
47001cf0:	e5901008 	ldr	r1, [r0, #8]
47001cf4:	e2011007 	and	r1, r1, #7
47001cf8:	e3510001 	cmp	r1, #1
47001cfc:	1afffffb 	bne	47001cf0 <ddr_b_setup+0x660>
47001d00:	e59f127c 	ldr	r1, [pc, #636]	; 47001f84 <finished1+0xa4>
47001d04:	e5801484 	str	r1, [r0, #1156]	; 0x484
47001d08:	e59f2240 	ldr	r2, [pc, #576]	; 47001f50 <finished1+0x70>
47001d0c:	e5901484 	ldr	r1, [r0, #1156]	; 0x484
47001d10:	e0011002 	and	r1, r1, r2
47001d14:	e1510002 	cmp	r1, r2
47001d18:	1afffffb 	bne	47001d0c <ddr_b_setup+0x67c>
47001d1c:	e5901404 	ldr	r1, [r0, #1028]	; 0x404
47001d20:	e3e02201 	mvn	r2, #268435456	; 0x10000000
47001d24:	e0011002 	and	r1, r1, r2
47001d28:	e5801404 	str	r1, [r0, #1028]	; 0x404
47001d2c:	e3a01002 	mov	r1, #2
47001d30:	e5801004 	str	r1, [r0, #4]
47001d34:	e5901008 	ldr	r1, [r0, #8]
47001d38:	e2011007 	and	r1, r1, #7
47001d3c:	e3510003 	cmp	r1, #3
47001d40:	1afffffb 	bne	47001d34 <ddr_b_setup+0x6a4>
47001d44:	e59f021c 	ldr	r0, [pc, #540]	; 47001f68 <finished1+0x88>
47001d48:	e3a01001 	mov	r1, #1
47001d4c:	e5801004 	str	r1, [r0, #4]
47001d50:	e5901008 	ldr	r1, [r0, #8]
47001d54:	e2011007 	and	r1, r1, #7
47001d58:	e3510001 	cmp	r1, #1
47001d5c:	1afffffb 	bne	47001d50 <ddr_b_setup+0x6c0>
47001d60:	e59f121c 	ldr	r1, [pc, #540]	; 47001f84 <finished1+0xa4>
47001d64:	e5801484 	str	r1, [r0, #1156]	; 0x484
47001d68:	e59f21e0 	ldr	r2, [pc, #480]	; 47001f50 <finished1+0x70>
47001d6c:	e5901484 	ldr	r1, [r0, #1156]	; 0x484
47001d70:	e0011002 	and	r1, r1, r2
47001d74:	e1510002 	cmp	r1, r2
47001d78:	1afffffb 	bne	47001d6c <ddr_b_setup+0x6dc>
47001d7c:	e5901404 	ldr	r1, [r0, #1028]	; 0x404
47001d80:	e3e02201 	mvn	r2, #268435456	; 0x10000000
47001d84:	e0011002 	and	r1, r1, r2
47001d88:	e5801404 	str	r1, [r0, #1028]	; 0x404
47001d8c:	e3a01002 	mov	r1, #2
47001d90:	e5801004 	str	r1, [r0, #4]
47001d94:	e5901008 	ldr	r1, [r0, #8]
47001d98:	e2011007 	and	r1, r1, #7
47001d9c:	e3510003 	cmp	r1, #3
47001da0:	1afffffb 	bne	47001d94 <ddr_b_setup+0x704>
47001da4:	e3a005c2 	mov	r0, #813694976	; 0x30800000
47001da8:	e3a01000 	mov	r1, #0
47001dac:	e5801008 	str	r1, [r0, #8]
47001db0:	e3a01000 	mov	r1, #0
47001db4:	e580100c 	str	r1, [r0, #12]
47001db8:	e3a01000 	mov	r1, #0
47001dbc:	e5801010 	str	r1, [r0, #16]
47001dc0:	e59f11c0 	ldr	r1, [pc, #448]	; 47001f88 <finished1+0xa8>
47001dc4:	e5801014 	str	r1, [r0, #20]
47001dc8:	e59f11bc 	ldr	r1, [pc, #444]	; 47001f8c <finished1+0xac>
47001dcc:	e5801018 	str	r1, [r0, #24]
47001dd0:	e59f11b4 	ldr	r1, [pc, #436]	; 47001f8c <finished1+0xac>
47001dd4:	e580101c 	str	r1, [r0, #28]
47001dd8:	e59f1178 	ldr	r1, [pc, #376]	; 47001f58 <finished1+0x78>
47001ddc:	e5801020 	str	r1, [r0, #32]
47001de0:	e3a01000 	mov	r1, #0
47001de4:	e5801024 	str	r1, [r0, #36]	; 0x24
47001de8:	e3a01000 	mov	r1, #0
47001dec:	e5801028 	str	r1, [r0, #40]	; 0x28
47001df0:	e3a01000 	mov	r1, #0
47001df4:	e580102c 	str	r1, [r0, #44]	; 0x2c
47001df8:	e59f0190 	ldr	r0, [pc, #400]	; 47001f90 <finished1+0xb0>
47001dfc:	e3a01000 	mov	r1, #0
47001e00:	e5801008 	str	r1, [r0, #8]
47001e04:	e3a01000 	mov	r1, #0
47001e08:	e580100c 	str	r1, [r0, #12]
47001e0c:	e59f1144 	ldr	r1, [pc, #324]	; 47001f58 <finished1+0x78>
47001e10:	e5801010 	str	r1, [r0, #16]
47001e14:	e59f113c 	ldr	r1, [pc, #316]	; 47001f58 <finished1+0x78>
47001e18:	e5801014 	str	r1, [r0, #20]
47001e1c:	e59f1170 	ldr	r1, [pc, #368]	; 47001f94 <finished1+0xb4>
47001e20:	e5801018 	str	r1, [r0, #24]
47001e24:	e59f1168 	ldr	r1, [pc, #360]	; 47001f94 <finished1+0xb4>
47001e28:	e580101c 	str	r1, [r0, #28]
47001e2c:	e59f1164 	ldr	r1, [pc, #356]	; 47001f98 <finished1+0xb8>
47001e30:	e5801020 	str	r1, [r0, #32]
47001e34:	e59f115c 	ldr	r1, [pc, #348]	; 47001f98 <finished1+0xb8>
47001e38:	e5801024 	str	r1, [r0, #36]	; 0x24
47001e3c:	e59f1114 	ldr	r1, [pc, #276]	; 47001f58 <finished1+0x78>
47001e40:	e5801028 	str	r1, [r0, #40]	; 0x28
47001e44:	e59f110c 	ldr	r1, [pc, #268]	; 47001f58 <finished1+0x78>
47001e48:	e580102c 	str	r1, [r0, #44]	; 0x2c
47001e4c:	e59f0148 	ldr	r0, [pc, #328]	; 47001f9c <finished1+0xbc>
47001e50:	e59f1148 	ldr	r1, [pc, #328]	; 47001fa0 <finished1+0xc0>
47001e54:	e5801000 	str	r1, [r0]
47001e58:	e59f1144 	ldr	r1, [pc, #324]	; 47001fa4 <finished1+0xc4>
47001e5c:	e5801004 	str	r1, [r0, #4]

47001e60 <v7_inv_dcache_all>:
47001e60:	f57ff05f 	dmb	sy
47001e64:	ee300f30 	mrc	15, 1, r0, cr0, cr0, {1}
47001e68:	e2103407 	ands	r3, r0, #117440512	; 0x7000000
47001e6c:	e1a03ba3 	lsr	r3, r3, #23
47001e70:	0a00001a 	beq	47001ee0 <finished1>
47001e74:	e3a0a000 	mov	sl, #0

47001e78 <loop11>:
47001e78:	e08a20aa 	add	r2, sl, sl, lsr #1
47001e7c:	e1a01230 	lsr	r1, r0, r2
47001e80:	e2011007 	and	r1, r1, #7
47001e84:	e3510002 	cmp	r1, #2
47001e88:	ba000011 	blt	47001ed4 <skip1>
47001e8c:	ee40af10 	mcr	15, 2, sl, cr0, cr0, {0}
47001e90:	f57ff06f 	isb	sy
47001e94:	ee301f10 	mrc	15, 1, r1, cr0, cr0, {0}
47001e98:	e2012007 	and	r2, r1, #7
47001e9c:	e2822004 	add	r2, r2, #4
47001ea0:	e59f4100 	ldr	r4, [pc, #256]	; 47001fa8 <finished1+0xc8>
47001ea4:	e01441a1 	ands	r4, r4, r1, lsr #3
47001ea8:	e16f5f14 	clz	r5, r4
47001eac:	e59f70f8 	ldr	r7, [pc, #248]	; 47001fac <finished1+0xcc>
47001eb0:	e01776a1 	ands	r7, r7, r1, lsr #13

47001eb4 <loop12>:
47001eb4:	e1a09004 	mov	r9, r4

47001eb8 <loop13>:
47001eb8:	e18ab519 	orr	fp, sl, r9, lsl r5
47001ebc:	e18bb217 	orr	fp, fp, r7, lsl r2
47001ec0:	ee07bf56 	mcr	15, 0, fp, cr7, cr6, {2}
47001ec4:	e2599001 	subs	r9, r9, #1
47001ec8:	aafffffa 	bge	47001eb8 <loop13>
47001ecc:	e2577001 	subs	r7, r7, #1
47001ed0:	aafffff7 	bge	47001eb4 <loop12>

47001ed4 <skip1>:
47001ed4:	e28aa002 	add	sl, sl, #2
47001ed8:	e153000a 	cmp	r3, sl
47001edc:	caffffe5 	bgt	47001e78 <loop11>

47001ee0 <finished1>:
47001ee0:	e3a0a000 	mov	sl, #0
47001ee4:	ee40af10 	mcr	15, 2, sl, cr0, cr0, {0}
47001ee8:	f57ff04f 	dsb	sy
47001eec:	f57ff06f 	isb	sy
47001ef0:	e1a0e00d 	mov	lr, sp
47001ef4:	e1a0f00e 	mov	pc, lr
47001ef8:	00111132 	.word	0x00111132
47001efc:	30408000 	.word	0x30408000
47001f00:	00001ee4 	.word	0x00001ee4
47001f04:	32e5d7af 	.word	0x32e5d7af
47001f08:	00005201 	.word	0x00005201
47001f0c:	00040021 	.word	0x00040021
47001f10:	0100c462 	.word	0x0100c462
47001f14:	3a424690 	.word	0x3a424690
47001f18:	b608065f 	.word	0xb608065f
47001f1c:	0010ffff 	.word	0x0010ffff
47001f20:	0100c461 	.word	0x0100c461
47001f24:	0000f142 	.word	0x0000f142
47001f28:	84f00000 	.word	0x84f00000
47001f2c:	80f40203 	.word	0x80f40203
47001f30:	80f60003 	.word	0x80f60003
47001f34:	80f20043 	.word	0x80f20043
47001f38:	80f0f153 	.word	0x80f0f153
47001f3c:	80f00005 	.word	0x80f00005
47001f40:	02111100 	.word	0x02111100
47001f44:	00030008 	.word	0x00030008
47001f48:	ff0500ff 	.word	0xff0500ff
47001f4c:	64570000 	.word	0x64570000
47001f50:	ffff0000 	.word	0xffff0000
47001f54:	000045d0 	.word	0x000045d0
47001f58:	02010201 	.word	0x02010201
47001f5c:	02410241 	.word	0x02410241
47001f60:	00010001 	.word	0x00010001
47001f64:	30808000 	.word	0x30808000
47001f68:	30818000 	.word	0x30818000
47001f6c:	34a957af 	.word	0x34a957af
47001f70:	0100c460 	.word	0x0100c460
47001f74:	0000040f 	.word	0x0000040f
47001f78:	30408080 	.word	0x30408080
47001f7c:	00010100 	.word	0x00010100
47001f80:	00030300 	.word	0x00030300
47001f84:	bfff0000 	.word	0xbfff0000
47001f88:	00810081 	.word	0x00810081
47001f8c:	0ff10ff1 	.word	0x0ff10ff1
47001f90:	30810000 	.word	0x30810000
47001f94:	01010101 	.word	0x01010101
47001f98:	01810181 	.word	0x01810181
47001f9c:	30650000 	.word	0x30650000
47001fa0:	01213233 	.word	0x01213233
47001fa4:	0d232220 	.word	0x0d232220
47001fa8:	000003ff 	.word	0x000003ff
47001fac:	00007fff 	.word	0x00007fff
47001fb0:	ffffffff 	.word	0xffffffff
47001fb4:	ffffffff 	.word	0xffffffff
47001fb8:	ffffffff 	.word	0xffffffff
47001fbc:	ffffffff 	.word	0xffffffff
47001fc0:	ffffffff 	.word	0xffffffff
47001fc4:	ffffffff 	.word	0xffffffff
47001fc8:	ffffffff 	.word	0xffffffff
47001fcc:	ffffffff 	.word	0xffffffff
47001fd0:	ffffffff 	.word	0xffffffff
47001fd4:	ffffffff 	.word	0xffffffff
47001fd8:	ffffffff 	.word	0xffffffff
47001fdc:	ffffffff 	.word	0xffffffff
47001fe0:	ffffffff 	.word	0xffffffff
47001fe4:	ffffffff 	.word	0xffffffff
47001fe8:	ffffffff 	.word	0xffffffff
47001fec:	ffffffff 	.word	0xffffffff
47001ff0:	ffffffff 	.word	0xffffffff
47001ff4:	ffffffff 	.word	0xffffffff
47001ff8:	ffffffff 	.word	0xffffffff
47001ffc:	ffffffff 	.word	0xffffffff

47002000 <reset_cpu>:
47002000:	e1a0f00e 	mov	pc, lr

47002004 <READ_TIMER>:
47002004:	e59f3008 	ldr	r3, [pc, #8]	; 47002014 <READ_TIMER+0x10>
47002008:	e5930408 	ldr	r0, [r3, #1032]	; 0x408
4700200c:	e6ff0070 	uxth	r0, r0
47002010:	e12fff1e 	bx	lr
47002014:	30090000 	.word	0x30090000

47002018 <set_timer>:
47002018:	e59f3004 	ldr	r3, [pc, #4]	; 47002024 <set_timer+0xc>
4700201c:	e5830000 	str	r0, [r3]
47002020:	e12fff1e 	bx	lr
47002024:	47007ae8 	.word	0x47007ae8

47002028 <get_delay_time>:
47002028:	e92d4008 	push	{r3, lr}
4700202c:	e3a0100a 	mov	r1, #10
47002030:	eb0005b9 	bl	4700371c <__aeabi_uidiv>
47002034:	e8bd8008 	pop	{r3, pc}

47002038 <reset_timer_masked>:
47002038:	e92d4008 	push	{r3, lr}
4700203c:	ebfffff0 	bl	47002004 <READ_TIMER>
47002040:	e59f300c 	ldr	r3, [pc, #12]	; 47002054 <reset_timer_masked+0x1c>
47002044:	e3a02000 	mov	r2, #0
47002048:	e5832000 	str	r2, [r3]
4700204c:	e5830004 	str	r0, [r3, #4]
47002050:	e8bd8008 	pop	{r3, pc}
47002054:	47007ae8 	.word	0x47007ae8

47002058 <reset_timer>:
47002058:	eafffff6 	b	47002038 <reset_timer_masked>

4700205c <get_timer_masked>:
4700205c:	e92d4007 	push	{r0, r1, r2, lr}
47002060:	ebffffe7 	bl	47002004 <READ_TIMER>
47002064:	e59f3048 	ldr	r3, [pc, #72]	; 470020b4 <get_timer_masked+0x58>
47002068:	e5932004 	ldr	r2, [r3, #4]
4700206c:	e58d0004 	str	r0, [sp, #4]
47002070:	e59d1004 	ldr	r1, [sp, #4]
47002074:	e1520001 	cmp	r2, r1
47002078:	e59d1004 	ldr	r1, [sp, #4]
4700207c:	32822cff 	addcc	r2, r2, #65280	; 0xff00
47002080:	25930000 	ldrcs	r0, [r3]
47002084:	328220ff 	addcc	r2, r2, #255	; 0xff
47002088:	30612002 	rsbcc	r2, r1, r2
4700208c:	35931000 	ldrcc	r1, [r3]
47002090:	20822000 	addcs	r2, r2, r0
47002094:	20612002 	rsbcs	r2, r1, r2
47002098:	36f12072 	uxtahcc	r2, r1, r2
4700209c:	e5832000 	str	r2, [r3]
470020a0:	e59f300c 	ldr	r3, [pc, #12]	; 470020b4 <get_timer_masked+0x58>
470020a4:	e59d2004 	ldr	r2, [sp, #4]
470020a8:	e5930000 	ldr	r0, [r3]
470020ac:	e5832004 	str	r2, [r3, #4]
470020b0:	e8bd800e 	pop	{r1, r2, r3, pc}
470020b4:	47007ae8 	.word	0x47007ae8

470020b8 <__udelay>:
470020b8:	e92d4010 	push	{r4, lr}
470020bc:	ebffffd9 	bl	47002028 <get_delay_time>
470020c0:	e1a04000 	mov	r4, r0
470020c4:	ebffffe4 	bl	4700205c <get_timer_masked>
470020c8:	e0804004 	add	r4, r0, r4
470020cc:	ebffffe2 	bl	4700205c <get_timer_masked>
470020d0:	e1500004 	cmp	r0, r4
470020d4:	3afffffc 	bcc	470020cc <__udelay+0x14>
470020d8:	e8bd8010 	pop	{r4, pc}

470020dc <get_timer>:
470020dc:	e92d4010 	push	{r4, lr}
470020e0:	e1a04000 	mov	r4, r0
470020e4:	ebffffdc 	bl	4700205c <get_timer_masked>
470020e8:	e3a01ffa 	mov	r1, #1000	; 0x3e8
470020ec:	eb00058a 	bl	4700371c <__aeabi_uidiv>
470020f0:	e0640000 	rsb	r0, r4, r0
470020f4:	e8bd8010 	pop	{r4, pc}

470020f8 <get_ticks>:
470020f8:	e92d4008 	push	{r3, lr}
470020fc:	e3a00000 	mov	r0, #0
47002100:	ebfffff5 	bl	470020dc <get_timer>
47002104:	e3a01000 	mov	r1, #0
47002108:	e8bd8008 	pop	{r3, pc}

4700210c <get_tbclk>:
4700210c:	e3a00000 	mov	r0, #0
47002110:	e12fff1e 	bx	lr

47002114 <timer_init>:
47002114:	e92d4010 	push	{r4, lr}
47002118:	eb000122 	bl	470025a8 <get_clock_apb>
4700211c:	e59f1070 	ldr	r1, [pc, #112]	; 47002194 <timer_init+0x80>
47002120:	eb00057d 	bl	4700371c <__aeabi_uidiv>
47002124:	e3500b01 	cmp	r0, #1024	; 0x400
47002128:	e1a02000 	mov	r2, r0
4700212c:	33a01000 	movcc	r1, #0
47002130:	3a000005 	bcc	4700214c <timer_init+0x38>
47002134:	e3500b02 	cmp	r0, #2048	; 0x800
47002138:	33a01001 	movcc	r1, #1
4700213c:	3a000002 	bcc	4700214c <timer_init+0x38>
47002140:	e3500a01 	cmp	r0, #4096	; 0x1000
47002144:	33a01002 	movcc	r1, #2
47002148:	23a01003 	movcs	r1, #3
4700214c:	e1a0c101 	lsl	ip, r1, #2
47002150:	e2811002 	add	r1, r1, #2
47002154:	e1a02132 	lsr	r2, r2, r1
47002158:	e59f3038 	ldr	r3, [pc, #56]	; 47002198 <timer_init+0x84>
4700215c:	e3a00000 	mov	r0, #0
47002160:	e38c4010 	orr	r4, ip, #16
47002164:	e1a02802 	lsl	r2, r2, #16
47002168:	e30f1fff 	movw	r1, #65535	; 0xffff
4700216c:	e583040c 	str	r0, [r3, #1036]	; 0x40c
47002170:	e38cc011 	orr	ip, ip, #17
47002174:	e1e02822 	mvn	r2, r2, lsr #16
47002178:	e5834400 	str	r4, [r3, #1024]	; 0x400
4700217c:	e1e02802 	mvn	r2, r2, lsl #16
47002180:	e5832404 	str	r2, [r3, #1028]	; 0x404
47002184:	e59f2010 	ldr	r2, [pc, #16]	; 4700219c <timer_init+0x88>
47002188:	e583c400 	str	ip, [r3, #1024]	; 0x400
4700218c:	e8820003 	stm	r2, {r0, r1}
47002190:	e8bd8010 	pop	{r4, pc}
47002194:	000186a0 	.word	0x000186a0
47002198:	30090000 	.word	0x30090000
4700219c:	47007ae8 	.word	0x47007ae8

470021a0 <serial_putc>:
470021a0:	e59f3020 	ldr	r3, [pc, #32]	; 470021c8 <serial_putc+0x28>
470021a4:	e5933a58 	ldr	r3, [r3, #2648]	; 0xa58
470021a8:	e3130c02 	tst	r3, #512	; 0x200
470021ac:	1afffffb 	bne	470021a0 <serial_putc>
470021b0:	e59f3014 	ldr	r3, [pc, #20]	; 470021cc <serial_putc+0x2c>
470021b4:	e350000a 	cmp	r0, #10
470021b8:	e5c30060 	strb	r0, [r3, #96]	; 0x60
470021bc:	112fff1e 	bxne	lr
470021c0:	e2800003 	add	r0, r0, #3
470021c4:	eafffff5 	b	470021a0 <serial_putc>
470021c8:	30090000 	.word	0x30090000
470021cc:	30090a00 	.word	0x30090a00

470021d0 <serial_tstc>:
470021d0:	e59f3014 	ldr	r3, [pc, #20]	; 470021ec <serial_tstc+0x1c>
470021d4:	e300010f 	movw	r0, #271	; 0x10f
470021d8:	e5933a58 	ldr	r3, [r3, #2648]	; 0xa58
470021dc:	e0030000 	and	r0, r3, r0
470021e0:	e2500000 	subs	r0, r0, #0
470021e4:	13a00001 	movne	r0, #1
470021e8:	e12fff1e 	bx	lr
470021ec:	30090000 	.word	0x30090000

470021f0 <serial_getc>:
470021f0:	e59f301c 	ldr	r3, [pc, #28]	; 47002214 <serial_getc+0x24>
470021f4:	e5932a58 	ldr	r2, [r3, #2648]	; 0xa58
470021f8:	e300310f 	movw	r3, #271	; 0x10f
470021fc:	e0023003 	and	r3, r2, r3
47002200:	e3530000 	cmp	r3, #0
47002204:	0afffff9 	beq	470021f0 <serial_getc>
47002208:	e59f3008 	ldr	r3, [pc, #8]	; 47002218 <serial_getc+0x28>
4700220c:	e5d30064 	ldrb	r0, [r3, #100]	; 0x64
47002210:	e12fff1e 	bx	lr
47002214:	30090000 	.word	0x30090000
47002218:	30090a00 	.word	0x30090a00

4700221c <serial_getc_check>:
4700221c:	e3a03000 	mov	r3, #0
47002220:	e59f2028 	ldr	r2, [pc, #40]	; 47002250 <serial_getc_check+0x34>
47002224:	e5921a58 	ldr	r1, [r2, #2648]	; 0xa58
47002228:	e300210f 	movw	r2, #271	; 0x10f
4700222c:	e0012002 	and	r2, r1, r2
47002230:	e3520000 	cmp	r2, #0
47002234:	1a000002 	bne	47002244 <serial_getc_check+0x28>
47002238:	e2833001 	add	r3, r3, #1
4700223c:	e1530000 	cmp	r3, r0
47002240:	1afffff6 	bne	47002220 <serial_getc_check+0x4>
47002244:	e59f3008 	ldr	r3, [pc, #8]	; 47002254 <serial_getc_check+0x38>
47002248:	e5d30064 	ldrb	r0, [r3, #100]	; 0x64
4700224c:	e12fff1e 	bx	lr
47002250:	30090000 	.word	0x30090000
47002254:	30090a00 	.word	0x30090a00

47002258 <serial_puts>:
47002258:	e92d4038 	push	{r3, r4, r5, lr}
4700225c:	e1a05000 	mov	r5, r0
47002260:	e3a04000 	mov	r4, #0
47002264:	ea000000 	b	4700226c <serial_puts+0x14>
47002268:	ebffffcc 	bl	470021a0 <serial_putc>
4700226c:	e7d50004 	ldrb	r0, [r5, r4]
47002270:	e2844001 	add	r4, r4, #1
47002274:	e3500000 	cmp	r0, #0
47002278:	1afffffa 	bne	47002268 <serial_puts+0x10>
4700227c:	e8bd8038 	pop	{r3, r4, r5, pc}

47002280 <micom_getc>:
47002280:	e59f301c 	ldr	r3, [pc, #28]	; 470022a4 <micom_getc+0x24>
47002284:	e5932a18 	ldr	r2, [r3, #2584]	; 0xa18
47002288:	e300310f 	movw	r3, #271	; 0x10f
4700228c:	e0023003 	and	r3, r2, r3
47002290:	e3530000 	cmp	r3, #0
47002294:	0afffff9 	beq	47002280 <micom_getc>
47002298:	e59f3008 	ldr	r3, [pc, #8]	; 470022a8 <micom_getc+0x28>
4700229c:	e5d30024 	ldrb	r0, [r3, #36]	; 0x24
470022a0:	e12fff1e 	bx	lr
470022a4:	30090000 	.word	0x30090000
470022a8:	30090a00 	.word	0x30090a00

470022ac <micom_putc>:
470022ac:	e59f3014 	ldr	r3, [pc, #20]	; 470022c8 <micom_putc+0x1c>
470022b0:	e5933a18 	ldr	r3, [r3, #2584]	; 0xa18
470022b4:	e3130c02 	tst	r3, #512	; 0x200
470022b8:	1afffffb 	bne	470022ac <micom_putc>
470022bc:	e59f3008 	ldr	r3, [pc, #8]	; 470022cc <micom_putc+0x20>
470022c0:	e5c30020 	strb	r0, [r3, #32]
470022c4:	e12fff1e 	bx	lr
470022c8:	30090000 	.word	0x30090000
470022cc:	30090a00 	.word	0x30090a00

470022d0 <PRINTF>:
470022d0:	e92d45f8 	push	{r3, r4, r5, r6, r7, r8, sl, lr}
470022d4:	e3a08000 	mov	r8, #0
470022d8:	e1a05000 	mov	r5, r0
470022dc:	e1a06001 	mov	r6, r1
470022e0:	e59f40f0 	ldr	r4, [pc, #240]	; 470023d8 <PRINTF+0x108>
470022e4:	e1a07008 	mov	r7, r8
470022e8:	ea000036 	b	470023c8 <PRINTF+0xf8>
470022ec:	e3500025 	cmp	r0, #37	; 0x25
470022f0:	e2855001 	add	r5, r5, #1
470022f4:	1a000032 	bne	470023c4 <PRINTF+0xf4>
470022f8:	e4d53001 	ldrb	r3, [r5], #1
470022fc:	e3530064 	cmp	r3, #100	; 0x64
47002300:	0a000008 	beq	47002328 <PRINTF+0x58>
47002304:	8a000001 	bhi	47002310 <PRINTF+0x40>
47002308:	e3530058 	cmp	r3, #88	; 0x58
4700230c:	ea000002 	b	4700231c <PRINTF+0x4c>
47002310:	e3530069 	cmp	r3, #105	; 0x69
47002314:	0a000003 	beq	47002328 <PRINTF+0x58>
47002318:	e3530078 	cmp	r3, #120	; 0x78
4700231c:	1a000029 	bne	470023c8 <PRINTF+0xf8>
47002320:	e3a04a01 	mov	r4, #4096	; 0x1000
47002324:	e3a08001 	mov	r8, #1
47002328:	e3560000 	cmp	r6, #0
4700232c:	1a000020 	bne	470023b4 <PRINTF+0xe4>
47002330:	ea000022 	b	470023c0 <PRINTF+0xf0>
47002334:	e1a00006 	mov	r0, r6
47002338:	e1a01004 	mov	r1, r4
4700233c:	eb0004f6 	bl	4700371c <__aeabi_uidiv>
47002340:	e6ef0070 	uxtb	r0, r0
47002344:	e3500000 	cmp	r0, #0
47002348:	1a000002 	bne	47002358 <PRINTF+0x88>
4700234c:	e3570000 	cmp	r7, #0
47002350:	0a00000b 	beq	47002384 <PRINTF+0xb4>
47002354:	ea000007 	b	47002378 <PRINTF+0xa8>
47002358:	e3500009 	cmp	r0, #9
4700235c:	93a07001 	movls	r7, #1
47002360:	9a000004 	bls	47002378 <PRINTF+0xa8>
47002364:	e2800037 	add	r0, r0, #55	; 0x37
47002368:	e3a07001 	mov	r7, #1
4700236c:	e6ef0070 	uxtb	r0, r0
47002370:	ebffff8a 	bl	470021a0 <serial_putc>
47002374:	ea000002 	b	47002384 <PRINTF+0xb4>
47002378:	e2800030 	add	r0, r0, #48	; 0x30
4700237c:	e6ef0070 	uxtb	r0, r0
47002380:	ebffff86 	bl	470021a0 <serial_putc>
47002384:	e3580000 	cmp	r8, #0
47002388:	11a0a224 	lsrne	sl, r4, #4
4700238c:	1a000003 	bne	470023a0 <PRINTF+0xd0>
47002390:	e1a00004 	mov	r0, r4
47002394:	e3a0100a 	mov	r1, #10
47002398:	eb0004df 	bl	4700371c <__aeabi_uidiv>
4700239c:	e1a0a000 	mov	sl, r0
470023a0:	e1a00006 	mov	r0, r6
470023a4:	e1a01004 	mov	r1, r4
470023a8:	eb000556 	bl	47003908 <__aeabi_uidivmod>
470023ac:	e1a0400a 	mov	r4, sl
470023b0:	e1a06001 	mov	r6, r1
470023b4:	e3540000 	cmp	r4, #0
470023b8:	1affffdd 	bne	47002334 <PRINTF+0x64>
470023bc:	ea000001 	b	470023c8 <PRINTF+0xf8>
470023c0:	e3a00030 	mov	r0, #48	; 0x30
470023c4:	ebffff75 	bl	470021a0 <serial_putc>
470023c8:	e5d50000 	ldrb	r0, [r5]
470023cc:	e3500000 	cmp	r0, #0
470023d0:	1affffc5 	bne	470022ec <PRINTF+0x1c>
470023d4:	e8bd85f8 	pop	{r3, r4, r5, r6, r7, r8, sl, pc}
470023d8:	3b9aca00 	.word	0x3b9aca00

470023dc <micom_cmd>:
470023dc:	e92d41f0 	push	{r4, r5, r6, r7, r8, lr}
470023e0:	e1a07000 	mov	r7, r0
470023e4:	e24dde11 	sub	sp, sp, #272	; 0x110
470023e8:	e1a06001 	mov	r6, r1
470023ec:	e1a05002 	mov	r5, r2
470023f0:	e3a04002 	mov	r4, #2
470023f4:	ea00001a 	b	47002464 <micom_cmd+0x88>
470023f8:	e28d0f41 	add	r0, sp, #260	; 0x104
470023fc:	e3a01000 	mov	r1, #0
47002400:	e3a02009 	mov	r2, #9
47002404:	e3a08000 	mov	r8, #0
47002408:	eb0000d6 	bl	47002768 <memset>
4700240c:	e3a01000 	mov	r1, #0
47002410:	e3a020ff 	mov	r2, #255	; 0xff
47002414:	e28d0004 	add	r0, sp, #4
47002418:	eb0000d2 	bl	47002768 <memset>
4700241c:	e6ef2077 	uxtb	r2, r7
47002420:	e6ef1076 	uxtb	r1, r6
47002424:	e3e03000 	mvn	r3, #0
47002428:	e5cd2106 	strb	r2, [sp, #262]	; 0x106
4700242c:	e0812002 	add	r2, r1, r2
47002430:	e5cd3104 	strb	r3, [sp, #260]	; 0x104
47002434:	e5cd3105 	strb	r3, [sp, #261]	; 0x105
47002438:	e6ef3075 	uxtb	r3, r5
4700243c:	e5cd1107 	strb	r1, [sp, #263]	; 0x107
47002440:	e5cd3108 	strb	r3, [sp, #264]	; 0x108
47002444:	e0833002 	add	r3, r3, r2
47002448:	e5cd310c 	strb	r3, [sp, #268]	; 0x10c
4700244c:	e28d3f41 	add	r3, sp, #260	; 0x104
47002450:	e7d30008 	ldrb	r0, [r3, r8]
47002454:	e2888001 	add	r8, r8, #1
47002458:	ebffff93 	bl	470022ac <micom_putc>
4700245c:	e3580009 	cmp	r8, #9
47002460:	1afffff9 	bne	4700244c <micom_cmd+0x70>
47002464:	e2544001 	subs	r4, r4, #1
47002468:	2affffe2 	bcs	470023f8 <micom_cmd+0x1c>
4700246c:	e3a00000 	mov	r0, #0
47002470:	e28dde11 	add	sp, sp, #272	; 0x110
47002474:	e8bd81f0 	pop	{r4, r5, r6, r7, r8, pc}

47002478 <serial_setbrg_micom>:
47002478:	e92d4007 	push	{r0, r1, r2, lr}
4700247c:	eb000049 	bl	470025a8 <get_clock_apb>
47002480:	e3a01b96 	mov	r1, #153600	; 0x25800
47002484:	eb0004a4 	bl	4700371c <__aeabi_uidiv>
47002488:	e59f3044 	ldr	r3, [pc, #68]	; 470024d4 <serial_setbrg_micom+0x5c>
4700248c:	e3a02003 	mov	r2, #3
47002490:	e5832a00 	str	r2, [r3, #2560]	; 0xa00
47002494:	e3032085 	movw	r2, #12421	; 0x3085
47002498:	e5832a04 	str	r2, [r3, #2564]	; 0xa04
4700249c:	e3a02001 	mov	r2, #1
470024a0:	e5832a08 	str	r2, [r3, #2568]	; 0xa08
470024a4:	e3a02000 	mov	r2, #0
470024a8:	e5832a0c 	str	r2, [r3, #2572]	; 0xa0c
470024ac:	e2400001 	sub	r0, r0, #1
470024b0:	e5830a28 	str	r0, [r3, #2600]	; 0xa28
470024b4:	e3a03064 	mov	r3, #100	; 0x64
470024b8:	e58d3004 	str	r3, [sp, #4]
470024bc:	e59d3004 	ldr	r3, [sp, #4]
470024c0:	e3530000 	cmp	r3, #0
470024c4:	e2432001 	sub	r2, r3, #1
470024c8:	e58d2004 	str	r2, [sp, #4]
470024cc:	1afffffa 	bne	470024bc <serial_setbrg_micom+0x44>
470024d0:	e8bd800e 	pop	{r1, r2, r3, pc}
470024d4:	30090000 	.word	0x30090000

470024d8 <serial_setbrg>:
470024d8:	e92d4007 	push	{r0, r1, r2, lr}
470024dc:	eb000031 	bl	470025a8 <get_clock_apb>
470024e0:	e3a01a2d 	mov	r1, #184320	; 0x2d000
470024e4:	eb00048c 	bl	4700371c <__aeabi_uidiv>
470024e8:	e3a0100a 	mov	r1, #10
470024ec:	e2400005 	sub	r0, r0, #5
470024f0:	eb000489 	bl	4700371c <__aeabi_uidiv>
470024f4:	e59f3040 	ldr	r3, [pc, #64]	; 4700253c <serial_setbrg+0x64>
470024f8:	e3a02003 	mov	r2, #3
470024fc:	e5832a40 	str	r2, [r3, #2624]	; 0xa40
47002500:	e3032085 	movw	r2, #12421	; 0x3085
47002504:	e5832a44 	str	r2, [r3, #2628]	; 0xa44
47002508:	e3a02001 	mov	r2, #1
4700250c:	e5832a48 	str	r2, [r3, #2632]	; 0xa48
47002510:	e3a02000 	mov	r2, #0
47002514:	e5832a4c 	str	r2, [r3, #2636]	; 0xa4c
47002518:	e5830a68 	str	r0, [r3, #2664]	; 0xa68
4700251c:	e3a03064 	mov	r3, #100	; 0x64
47002520:	e58d3004 	str	r3, [sp, #4]
47002524:	e59d3004 	ldr	r3, [sp, #4]
47002528:	e3530000 	cmp	r3, #0
4700252c:	e2432001 	sub	r2, r3, #1
47002530:	e58d2004 	str	r2, [sp, #4]
47002534:	1afffffa 	bne	47002524 <serial_setbrg+0x4c>
47002538:	e8bd800e 	pop	{r1, r2, r3, pc}
4700253c:	30090000 	.word	0x30090000

47002540 <serial_init>:
47002540:	e92d4008 	push	{r3, lr}
47002544:	ebffffe3 	bl	470024d8 <serial_setbrg>
47002548:	ebffffca 	bl	47002478 <serial_setbrg_micom>
4700254c:	e3a00000 	mov	r0, #0
47002550:	e8bd8008 	pop	{r3, pc}

47002554 <raise>:
47002554:	e12fff1e 	bx	lr

47002558 <get_clock_arm>:
47002558:	e51f0000 	ldr	r0, [pc, #0]	; 47002560 <get_clock_arm+0x8>
4700255c:	e12fff1e 	bx	lr
47002560:	3b9aca00 	.word	0x3b9aca00

47002564 <get_clock_bus>:
47002564:	e92d4038 	push	{r3, r4, r5, lr}
47002568:	e59f3030 	ldr	r3, [pc, #48]	; 470025a0 <get_clock_bus+0x3c>
4700256c:	e59f0030 	ldr	r0, [pc, #48]	; 470025a4 <get_clock_bus+0x40>
47002570:	e3a0520a 	mov	r5, #-1610612736	; 0xa0000000
47002574:	e5934828 	ldr	r4, [r3, #2088]	; 0x828
47002578:	e3a03000 	mov	r3, #0
4700257c:	e5853000 	str	r3, [r5]
47002580:	e2043007 	and	r3, r4, #7
47002584:	e7e51a54 	ubfx	r1, r4, #20, #6
47002588:	e1a00350 	asr	r0, r0, r3
4700258c:	e7e94454 	ubfx	r4, r4, #8, #10
47002590:	eb000461 	bl	4700371c <__aeabi_uidiv>
47002594:	e0000094 	mul	r0, r4, r0
47002598:	e5850000 	str	r0, [r5]
4700259c:	e8bd8038 	pop	{r3, r4, r5, pc}
470025a0:	30090000 	.word	0x30090000
470025a4:	016e3600 	.word	0x016e3600

470025a8 <get_clock_apb>:
470025a8:	e92d4008 	push	{r3, lr}
470025ac:	ebffffec 	bl	47002564 <get_clock_bus>
470025b0:	e1a000a0 	lsr	r0, r0, #1
470025b4:	e8bd8008 	pop	{r3, pc}

470025b8 <print_cpuinfo>:
470025b8:	e92d4008 	push	{r3, lr}
470025bc:	e3a03203 	mov	r3, #805306368	; 0x30000000
470025c0:	e59330c0 	ldr	r3, [r3, #192]	; 0xc0
470025c4:	ebffffe6 	bl	47002564 <get_clock_bus>
470025c8:	ebfffff6 	bl	470025a8 <get_clock_apb>
470025cc:	e3a00000 	mov	r0, #0
470025d0:	e8bd8008 	pop	{r3, pc}

470025d4 <setup_start_tag>:
470025d4:	e59f3020 	ldr	r3, [pc, #32]	; 470025fc <setup_start_tag+0x28>
470025d8:	e5803004 	str	r3, [r0, #4]
470025dc:	e3a03005 	mov	r3, #5
470025e0:	e5803000 	str	r3, [r0]
470025e4:	e3a03000 	mov	r3, #0
470025e8:	e5803008 	str	r3, [r0, #8]
470025ec:	e580300c 	str	r3, [r0, #12]
470025f0:	e5803010 	str	r3, [r0, #16]
470025f4:	e2800014 	add	r0, r0, #20
470025f8:	e12fff1e 	bx	lr
470025fc:	54410001 	.word	0x54410001

47002600 <setup_commandline_tag>:
47002600:	e3510000 	cmp	r1, #0
47002604:	e24dd008 	sub	sp, sp, #8
47002608:	0a000023 	beq	4700269c <setup_commandline_tag+0x9c>
4700260c:	ea000000 	b	47002614 <setup_commandline_tag+0x14>
47002610:	e2811001 	add	r1, r1, #1
47002614:	e5d13000 	ldrb	r3, [r1]
47002618:	e3530020 	cmp	r3, #32
4700261c:	0afffffb 	beq	47002610 <setup_commandline_tag+0x10>
47002620:	e3530000 	cmp	r3, #0
47002624:	13a03000 	movne	r3, #0
47002628:	1a000003 	bne	4700263c <setup_commandline_tag+0x3c>
4700262c:	ea00001a 	b	4700269c <setup_commandline_tag+0x9c>
47002630:	e59d3004 	ldr	r3, [sp, #4]
47002634:	e2811001 	add	r1, r1, #1
47002638:	e2833001 	add	r3, r3, #1
4700263c:	e58d3004 	str	r3, [sp, #4]
47002640:	e5d13000 	ldrb	r3, [r1]
47002644:	e3530000 	cmp	r3, #0
47002648:	1afffff8 	bne	47002630 <setup_commandline_tag+0x30>
4700264c:	e59d2004 	ldr	r2, [sp, #4]
47002650:	e0621001 	rsb	r1, r2, r1
47002654:	e59f204c 	ldr	r2, [pc, #76]	; 470026a8 <setup_commandline_tag+0xa8>
47002658:	e5802004 	str	r2, [r0, #4]
4700265c:	e59d2004 	ldr	r2, [sp, #4]
47002660:	e282200d 	add	r2, r2, #13
47002664:	e1a02122 	lsr	r2, r2, #2
47002668:	e5802000 	str	r2, [r0]
4700266c:	e1a02000 	mov	r2, r0
47002670:	ea000002 	b	47002680 <setup_commandline_tag+0x80>
47002674:	e7d1c003 	ldrb	ip, [r1, r3]
47002678:	e2833001 	add	r3, r3, #1
4700267c:	e5c2c007 	strb	ip, [r2, #7]
47002680:	e59dc004 	ldr	ip, [sp, #4]
47002684:	e2822001 	add	r2, r2, #1
47002688:	e153000c 	cmp	r3, ip
4700268c:	bafffff8 	blt	47002674 <setup_commandline_tag+0x74>
47002690:	e5903000 	ldr	r3, [r0]
47002694:	e0800103 	add	r0, r0, r3, lsl #2
47002698:	ea000000 	b	470026a0 <setup_commandline_tag+0xa0>
4700269c:	e3a00000 	mov	r0, #0
470026a0:	e28dd008 	add	sp, sp, #8
470026a4:	e12fff1e 	bx	lr
470026a8:	54410009 	.word	0x54410009

470026ac <setup_end_tag>:
470026ac:	e3a02000 	mov	r2, #0
470026b0:	e5802004 	str	r2, [r0, #4]
470026b4:	e5802000 	str	r2, [r0]
470026b8:	e12fff1e 	bx	lr

470026bc <memcpy>:
470026bc:	e92d4030 	push	{r4, r5, lr}
470026c0:	e0214000 	eor	r4, r1, r0
470026c4:	e3140003 	tst	r4, #3
470026c8:	e1a03000 	mov	r3, r0
470026cc:	e1a0c001 	mov	ip, r1
470026d0:	13a03000 	movne	r3, #0
470026d4:	1a000020 	bne	4700275c <memcpy+0xa0>
470026d8:	ea000006 	b	470026f8 <memcpy+0x3c>
470026dc:	e5dc1000 	ldrb	r1, [ip]
470026e0:	e2422001 	sub	r2, r2, #1
470026e4:	e3520000 	cmp	r2, #0
470026e8:	e5c31000 	strb	r1, [r3]
470026ec:	d8bd8030 	pople	{r4, r5, pc}
470026f0:	e2833001 	add	r3, r3, #1
470026f4:	e28cc001 	add	ip, ip, #1
470026f8:	e2131003 	ands	r1, r3, #3
470026fc:	1afffff6 	bne	470026dc <memcpy+0x20>
47002700:	e1a05122 	lsr	r5, r2, #2
47002704:	ea000002 	b	47002714 <memcpy+0x58>
47002708:	e51c0004 	ldr	r0, [ip, #-4]
4700270c:	e2811001 	add	r1, r1, #1
47002710:	e5030004 	str	r0, [r3, #-4]
47002714:	e1510005 	cmp	r1, r5
47002718:	e1a0000c 	mov	r0, ip
4700271c:	e1a04003 	mov	r4, r3
47002720:	e28cc004 	add	ip, ip, #4
47002724:	e2833004 	add	r3, r3, #4
47002728:	bafffff6 	blt	47002708 <memcpy+0x4c>
4700272c:	e3a03000 	mov	r3, #0
47002730:	ea000003 	b	47002744 <memcpy+0x88>
47002734:	e7d01003 	ldrb	r1, [r0, r3]
47002738:	e2422001 	sub	r2, r2, #1
4700273c:	e7c41003 	strb	r1, [r4, r3]
47002740:	e2833001 	add	r3, r3, #1
47002744:	e3120003 	tst	r2, #3
47002748:	1afffff9 	bne	47002734 <memcpy+0x78>
4700274c:	e8bd8030 	pop	{r4, r5, pc}
47002750:	e7d1c003 	ldrb	ip, [r1, r3]
47002754:	e7c0c003 	strb	ip, [r0, r3]
47002758:	e2833001 	add	r3, r3, #1
4700275c:	e1530002 	cmp	r3, r2
47002760:	bafffffa 	blt	47002750 <memcpy+0x94>
47002764:	e8bd8030 	pop	{r4, r5, pc}

47002768 <memset>:
47002768:	e1a03801 	lsl	r3, r1, #16
4700276c:	e1a0c000 	mov	ip, r0
47002770:	e1833c01 	orr	r3, r3, r1, lsl #24
47002774:	e1833001 	orr	r3, r3, r1
47002778:	e92d4030 	push	{r4, r5, lr}
4700277c:	e1833401 	orr	r3, r3, r1, lsl #8
47002780:	ea000004 	b	47002798 <memset+0x30>
47002784:	e2422001 	sub	r2, r2, #1
47002788:	e5cc1000 	strb	r1, [ip]
4700278c:	e3520000 	cmp	r2, #0
47002790:	d8bd8030 	pople	{r4, r5, pc}
47002794:	e28cc001 	add	ip, ip, #1
47002798:	e2105003 	ands	r5, r0, #3
4700279c:	1afffff8 	bne	47002784 <memset+0x1c>
470027a0:	e1a04122 	lsr	r4, r2, #2
470027a4:	e1a00005 	mov	r0, r5
470027a8:	ea000001 	b	470027b4 <memset+0x4c>
470027ac:	e78c3100 	str	r3, [ip, r0, lsl #2]
470027b0:	e2800001 	add	r0, r0, #1
470027b4:	e1500004 	cmp	r0, r4
470027b8:	3afffffb 	bcc	470027ac <memset+0x44>
470027bc:	e08cc104 	add	ip, ip, r4, lsl #2
470027c0:	e3a03000 	mov	r3, #0
470027c4:	ea000002 	b	470027d4 <memset+0x6c>
470027c8:	e7cc1003 	strb	r1, [ip, r3]
470027cc:	e2422001 	sub	r2, r2, #1
470027d0:	e2833001 	add	r3, r3, #1
470027d4:	e3120003 	tst	r2, #3
470027d8:	1afffffa 	bne	470027c8 <memset+0x60>
470027dc:	e8bd8030 	pop	{r4, r5, pc}

470027e0 <sdp_hci_tx_init>:
470027e0:	e59f2088 	ldr	r2, [pc, #136]	; 47002870 <sdp_hci_tx_init+0x90>
470027e4:	e3a03001 	mov	r3, #1
470027e8:	e3a01000 	mov	r1, #0
470027ec:	e5823004 	str	r3, [r2, #4]
470027f0:	e5821084 	str	r1, [r2, #132]	; 0x84
470027f4:	e242286f 	sub	r2, r2, #7274496	; 0x6f0000
470027f8:	e281100b 	add	r1, r1, #11
470027fc:	e5821d48 	str	r1, [r2, #3400]	; 0xd48
47002800:	e28110f9 	add	r1, r1, #249	; 0xf9
47002804:	e5821d70 	str	r1, [r2, #3440]	; 0xd70
47002808:	e2422819 	sub	r2, r2, #1638400	; 0x190000
4700280c:	e3a0190a 	mov	r1, #163840	; 0x28000
47002810:	e5821914 	str	r1, [r2, #2324]	; 0x914
47002814:	e59f2058 	ldr	r2, [pc, #88]	; 47002874 <sdp_hci_tx_init+0x94>
47002818:	e5823d10 	str	r3, [r2, #3344]	; 0xd10
4700281c:	e59f3054 	ldr	r3, [pc, #84]	; 47002878 <sdp_hci_tx_init+0x98>
47002820:	e2831de9 	add	r1, r3, #14912	; 0x3a40
47002824:	ea000004 	b	4700283c <sdp_hci_tx_init+0x5c>
47002828:	e15320b4 	ldrh	r2, [r3, #-4]
4700282c:	e15300b2 	ldrh	r0, [r3, #-2]
47002830:	e2822203 	add	r2, r2, #805306368	; 0x30000000
47002834:	e282270e 	add	r2, r2, #3670016	; 0x380000
47002838:	e5820000 	str	r0, [r2]
4700283c:	e2833004 	add	r3, r3, #4
47002840:	e1530001 	cmp	r3, r1
47002844:	1afffff7 	bne	47002828 <sdp_hci_tx_init+0x48>
47002848:	e59f202c 	ldr	r2, [pc, #44]	; 4700287c <sdp_hci_tx_init+0x9c>
4700284c:	e3a01001 	mov	r1, #1
47002850:	e59f301c 	ldr	r3, [pc, #28]	; 47002874 <sdp_hci_tx_init+0x94>
47002854:	e3a000e1 	mov	r0, #225	; 0xe1
47002858:	e5831c1c 	str	r1, [r3, #3100]	; 0xc1c
4700285c:	e5820008 	str	r0, [r2, #8]
47002860:	e582100c 	str	r1, [r2, #12]
47002864:	e3a02000 	mov	r2, #0
47002868:	e5832d10 	str	r2, [r3, #3344]	; 0xd10
4700286c:	e12fff1e 	bx	lr
47002870:	30910000 	.word	0x30910000
47002874:	3039f000 	.word	0x3039f000
47002878:	47004094 	.word	0x47004094
4700287c:	303b0000 	.word	0x303b0000

47002880 <uart_init>:
47002880:	e92d41ff 	push	{r0, r1, r2, r3, r4, r5, r6, r7, r8, lr}
47002884:	e59f8080 	ldr	r8, [pc, #128]	; 4700290c <uart_init+0x8c>
47002888:	e3a07003 	mov	r7, #3
4700288c:	e3036085 	movw	r6, #12421	; 0x3085
47002890:	e3a05001 	mov	r5, #1
47002894:	e3a04000 	mov	r4, #0
47002898:	e5983000 	ldr	r3, [r8]
4700289c:	e5837000 	str	r7, [r3]
470028a0:	e5836004 	str	r6, [r3, #4]
470028a4:	e5835008 	str	r5, [r3, #8]
470028a8:	e583400c 	str	r4, [r3, #12]
470028ac:	ebffff3d 	bl	470025a8 <get_clock_apb>
470028b0:	e3a01a2d 	mov	r1, #184320	; 0x2d000
470028b4:	e58d000c 	str	r0, [sp, #12]
470028b8:	e59d000c 	ldr	r0, [sp, #12]
470028bc:	eb000396 	bl	4700371c <__aeabi_uidiv>
470028c0:	e3a0100a 	mov	r1, #10
470028c4:	e2400005 	sub	r0, r0, #5
470028c8:	eb000393 	bl	4700371c <__aeabi_uidiv>
470028cc:	e3a01b96 	mov	r1, #153600	; 0x25800
470028d0:	e58d0008 	str	r0, [sp, #8]
470028d4:	e59d000c 	ldr	r0, [sp, #12]
470028d8:	eb00038f 	bl	4700371c <__aeabi_uidiv>
470028dc:	e5983000 	ldr	r3, [r8]
470028e0:	e2400001 	sub	r0, r0, #1
470028e4:	e58d0004 	str	r0, [sp, #4]
470028e8:	e59d2008 	ldr	r2, [sp, #8]
470028ec:	e5832028 	str	r2, [r3, #40]	; 0x28
470028f0:	e5837000 	str	r7, [r3]
470028f4:	e5836004 	str	r6, [r3, #4]
470028f8:	e5835008 	str	r5, [r3, #8]
470028fc:	e583400c 	str	r4, [r3, #12]
47002900:	e59d2008 	ldr	r2, [sp, #8]
47002904:	e5832028 	str	r2, [r3, #40]	; 0x28
47002908:	e8bd81ff 	pop	{r0, r1, r2, r3, r4, r5, r6, r7, r8, pc}
4700290c:	47007af0 	.word	0x47007af0

47002910 <sdp_peri_init>:
47002910:	e59f3010 	ldr	r3, [pc, #16]	; 47002928 <sdp_peri_init+0x18>
47002914:	e59f2010 	ldr	r2, [pc, #16]	; 4700292c <sdp_peri_init+0x1c>
47002918:	e5832004 	str	r2, [r3, #4]
4700291c:	e2822080 	add	r2, r2, #128	; 0x80
47002920:	e5832000 	str	r2, [r3]
47002924:	eaffffd5 	b	47002880 <uart_init>
47002928:	47007af0 	.word	0x47007af0
4700292c:	30090a00 	.word	0x30090a00

47002930 <send_start_packet>:
47002930:	e3520000 	cmp	r2, #0
47002934:	e3a03000 	mov	r3, #0
47002938:	e92d4013 	push	{r0, r1, r4, lr}
4700293c:	e58d3004 	str	r3, [sp, #4]
47002940:	028330d0 	addeq	r3, r3, #208	; 0xd0
47002944:	13a03090 	movne	r3, #144	; 0x90
47002948:	e58d3004 	str	r3, [sp, #4]
4700294c:	e2022001 	and	r2, r2, #1
47002950:	e59f3050 	ldr	r3, [pc, #80]	; 470029a8 <send_start_packet+0x78>
47002954:	e1821001 	orr	r1, r2, r1
47002958:	e0803003 	add	r3, r0, r3
4700295c:	e1a0c283 	lsl	ip, r3, #5
47002960:	e28c3004 	add	r3, ip, #4
47002964:	e59c4000 	ldr	r4, [ip]
47002968:	e3844040 	orr	r4, r4, #64	; 0x40
4700296c:	e58c4000 	str	r4, [ip]
47002970:	e59d4004 	ldr	r4, [sp, #4]
47002974:	e5834000 	str	r4, [r3]
47002978:	e58c100c 	str	r1, [ip, #12]
4700297c:	e3a01001 	mov	r1, #1
47002980:	e59d2004 	ldr	r2, [sp, #4]
47002984:	e3822020 	orr	r2, r2, #32
47002988:	e58d2004 	str	r2, [sp, #4]
4700298c:	e59d2004 	ldr	r2, [sp, #4]
47002990:	e5832000 	str	r2, [r3]
47002994:	e59f3010 	ldr	r3, [pc, #16]	; 470029ac <send_start_packet+0x7c>
47002998:	e59321f4 	ldr	r2, [r3, #500]	; 0x1f4
4700299c:	e1820011 	orr	r0, r2, r1, lsl r0
470029a0:	e58301f4 	str	r0, [r3, #500]	; 0x1f4
470029a4:	e8bd801c 	pop	{r2, r3, r4, pc}
470029a8:	01804808 	.word	0x01804808
470029ac:	30090000 	.word	0x30090000

470029b0 <send_stop_packet>:
470029b0:	e3a03000 	mov	r3, #0
470029b4:	e24dd008 	sub	sp, sp, #8
470029b8:	e1510003 	cmp	r1, r3
470029bc:	e58d3004 	str	r3, [sp, #4]
470029c0:	028330d0 	addeq	r3, r3, #208	; 0xd0
470029c4:	13a03090 	movne	r3, #144	; 0x90
470029c8:	e58d3004 	str	r3, [sp, #4]
470029cc:	e59f3038 	ldr	r3, [pc, #56]	; 47002a0c <send_stop_packet+0x5c>
470029d0:	e0803003 	add	r3, r0, r3
470029d4:	e1a02283 	lsl	r2, r3, #5
470029d8:	e2823004 	add	r3, r2, #4
470029dc:	e5921000 	ldr	r1, [r2]
470029e0:	e3c11040 	bic	r1, r1, #64	; 0x40
470029e4:	e5821000 	str	r1, [r2]
470029e8:	e59d2004 	ldr	r2, [sp, #4]
470029ec:	e3a01001 	mov	r1, #1
470029f0:	e5832000 	str	r2, [r3]
470029f4:	e59f3014 	ldr	r3, [pc, #20]	; 47002a10 <send_stop_packet+0x60>
470029f8:	e59321f4 	ldr	r2, [r3, #500]	; 0x1f4
470029fc:	e1820011 	orr	r0, r2, r1, lsl r0
47002a00:	e58301f4 	str	r0, [r3, #500]	; 0x1f4
47002a04:	e28dd008 	add	sp, sp, #8
47002a08:	e12fff1e 	bx	lr
47002a0c:	01804808 	.word	0x01804808
47002a10:	30090000 	.word	0x30090000

47002a14 <check_port_ack>:
47002a14:	e59f3014 	ldr	r3, [pc, #20]	; 47002a30 <check_port_ack+0x1c>
47002a18:	e1a00280 	lsl	r0, r0, #5
47002a1c:	e0803003 	add	r3, r0, r3
47002a20:	e5930000 	ldr	r0, [r3]
47002a24:	e2100001 	ands	r0, r0, #1
47002a28:	13e00000 	mvnne	r0, #0
47002a2c:	e12fff1e 	bx	lr
47002a30:	30090104 	.word	0x30090104

47002a34 <i2c_init>:
47002a34:	e92d40f8 	push	{r3, r4, r5, r6, r7, lr}
47002a38:	e1a04000 	mov	r4, r0
47002a3c:	e1a06002 	mov	r6, r2
47002a40:	ebfffed8 	bl	470025a8 <get_clock_apb>
47002a44:	e3a01ffa 	mov	r1, #1000	; 0x3e8
47002a48:	eb000333 	bl	4700371c <__aeabi_uidiv>
47002a4c:	e59f2094 	ldr	r2, [pc, #148]	; 47002ae8 <i2c_init+0xb4>
47002a50:	e3a0307f 	mov	r3, #127	; 0x7f
47002a54:	e58231f8 	str	r3, [r2, #504]	; 0x1f8
47002a58:	e59f308c 	ldr	r3, [pc, #140]	; 47002aec <i2c_init+0xb8>
47002a5c:	e0843003 	add	r3, r4, r3
47002a60:	e1a01283 	lsl	r1, r3, #5
47002a64:	e2811010 	add	r1, r1, #16
47002a68:	e1a07000 	mov	r7, r0
47002a6c:	e3000401 	movw	r0, #1025	; 0x401
47002a70:	e5810000 	str	r0, [r1]
47002a74:	e2441005 	sub	r1, r4, #5
47002a78:	e6ef1071 	uxtb	r1, r1
47002a7c:	e3510001 	cmp	r1, #1
47002a80:	92400b01 	subls	r0, r0, #1024	; 0x400
47002a84:	92844001 	addls	r4, r4, #1
47002a88:	95921c50 	ldrls	r1, [r2, #3152]	; 0xc50
47002a8c:	91814410 	orrls	r4, r1, r0, lsl r4
47002a90:	95824c50 	strls	r4, [r2, #3152]	; 0xc50
47002a94:	e1a04283 	lsl	r4, r3, #5
47002a98:	e1a00227 	lsr	r0, r7, #4
47002a9c:	e300317f 	movw	r3, #383	; 0x17f
47002aa0:	e1a01006 	mov	r1, r6
47002aa4:	e5942000 	ldr	r2, [r4]
47002aa8:	e0023003 	and	r3, r2, r3
47002aac:	e5843000 	str	r3, [r4]
47002ab0:	eb000319 	bl	4700371c <__aeabi_uidiv>
47002ab4:	e5945000 	ldr	r5, [r4]
47002ab8:	e350003f 	cmp	r0, #63	; 0x3f
47002abc:	9a000003 	bls	47002ad0 <i2c_init+0x9c>
47002ac0:	e1a00427 	lsr	r0, r7, #8
47002ac4:	e1a01006 	mov	r1, r6
47002ac8:	eb000313 	bl	4700371c <__aeabi_uidiv>
47002acc:	e3855080 	orr	r5, r5, #128	; 0x80
47002ad0:	e200003f 	and	r0, r0, #63	; 0x3f
47002ad4:	e2055d0f 	and	r5, r5, #960	; 0x3c0
47002ad8:	e3800d05 	orr	r0, r0, #320	; 0x140
47002adc:	e1805005 	orr	r5, r0, r5
47002ae0:	e5845000 	str	r5, [r4]
47002ae4:	e8bd80f8 	pop	{r3, r4, r5, r6, r7, pc}
47002ae8:	30090000 	.word	0x30090000
47002aec:	01804808 	.word	0x01804808

47002af0 <wait_interrupt>:
47002af0:	e92d4038 	push	{r3, r4, r5, lr}
47002af4:	e3a05001 	mov	r5, #1
47002af8:	e1a05015 	lsl	r5, r5, r0
47002afc:	e3a04000 	mov	r4, #0
47002b00:	e59f3030 	ldr	r3, [pc, #48]	; 47002b38 <wait_interrupt+0x48>
47002b04:	e59331f4 	ldr	r3, [r3, #500]	; 0x1f4
47002b08:	e0053003 	and	r3, r5, r3
47002b0c:	e1530005 	cmp	r3, r5
47002b10:	1a000001 	bne	47002b1c <wait_interrupt+0x2c>
47002b14:	e3a00000 	mov	r0, #0
47002b18:	e8bd8038 	pop	{r3, r4, r5, pc}
47002b1c:	e3a0000a 	mov	r0, #10
47002b20:	e2844001 	add	r4, r4, #1
47002b24:	ebfffd63 	bl	470020b8 <__udelay>
47002b28:	e3540064 	cmp	r4, #100	; 0x64
47002b2c:	1afffff3 	bne	47002b00 <wait_interrupt+0x10>
47002b30:	e3e00000 	mvn	r0, #0
47002b34:	e8bd8038 	pop	{r3, r4, r5, pc}
47002b38:	30090000 	.word	0x30090000

47002b3c <i2c_write>:
47002b3c:	e92d4ff8 	push	{r3, r4, r5, r6, r7, r8, r9, sl, fp, lr}
47002b40:	e59f6164 	ldr	r6, [pc, #356]	; 47002cac <i2c_write+0x170>
47002b44:	e1a07003 	mov	r7, r3
47002b48:	e1a04000 	mov	r4, r0
47002b4c:	e0806006 	add	r6, r0, r6
47002b50:	e59d8028 	ldr	r8, [sp, #40]	; 0x28
47002b54:	e1a05002 	mov	r5, r2
47002b58:	e3a02000 	mov	r2, #0
47002b5c:	e1a06286 	lsl	r6, r6, #5
47002b60:	e5963000 	ldr	r3, [r6]
47002b64:	e20330ff 	and	r3, r3, #255	; 0xff
47002b68:	e5863000 	str	r3, [r6]
47002b6c:	ebffff6f 	bl	47002930 <send_start_packet>
47002b70:	e1a00004 	mov	r0, r4
47002b74:	ebffffdd 	bl	47002af0 <wait_interrupt>
47002b78:	e3700001 	cmn	r0, #1
47002b7c:	0a000040 	beq	47002c84 <i2c_write+0x148>
47002b80:	e1a00004 	mov	r0, r4
47002b84:	ebffffa2 	bl	47002a14 <check_port_ack>
47002b88:	e3700001 	cmn	r0, #1
47002b8c:	0a00003c 	beq	47002c84 <i2c_write+0x148>
47002b90:	e59f9118 	ldr	r9, [pc, #280]	; 47002cb0 <i2c_write+0x174>
47002b94:	e7e73455 	ubfx	r3, r5, #8, #8
47002b98:	e3a0a001 	mov	sl, #1
47002b9c:	e586300c 	str	r3, [r6, #12]
47002ba0:	e1a0a41a 	lsl	sl, sl, r4
47002ba4:	e1a00004 	mov	r0, r4
47002ba8:	e59931f4 	ldr	r3, [r9, #500]	; 0x1f4
47002bac:	e286b00c 	add	fp, r6, #12
47002bb0:	e18a3003 	orr	r3, sl, r3
47002bb4:	e58931f4 	str	r3, [r9, #500]	; 0x1f4
47002bb8:	ebffffcc 	bl	47002af0 <wait_interrupt>
47002bbc:	e3700001 	cmn	r0, #1
47002bc0:	0a00002f 	beq	47002c84 <i2c_write+0x148>
47002bc4:	e1a00004 	mov	r0, r4
47002bc8:	ebffff91 	bl	47002a14 <check_port_ack>
47002bcc:	e3700001 	cmn	r0, #1
47002bd0:	0a00002b 	beq	47002c84 <i2c_write+0x148>
47002bd4:	e20550ff 	and	r5, r5, #255	; 0xff
47002bd8:	e586500c 	str	r5, [r6, #12]
47002bdc:	e59931f4 	ldr	r3, [r9, #500]	; 0x1f4
47002be0:	e1a00004 	mov	r0, r4
47002be4:	e18a3003 	orr	r3, sl, r3
47002be8:	e58931f4 	str	r3, [r9, #500]	; 0x1f4
47002bec:	ebffffbf 	bl	47002af0 <wait_interrupt>
47002bf0:	e3700001 	cmn	r0, #1
47002bf4:	0a000022 	beq	47002c84 <i2c_write+0x148>
47002bf8:	e1a00004 	mov	r0, r4
47002bfc:	ebffff84 	bl	47002a14 <check_port_ack>
47002c00:	e3700001 	cmn	r0, #1
47002c04:	13a05000 	movne	r5, #0
47002c08:	1a000012 	bne	47002c58 <i2c_write+0x11c>
47002c0c:	ea00001c 	b	47002c84 <i2c_write+0x148>
47002c10:	e5963000 	ldr	r3, [r6]
47002c14:	e1a00004 	mov	r0, r4
47002c18:	e3833c01 	orr	r3, r3, #256	; 0x100
47002c1c:	e5863000 	str	r3, [r6]
47002c20:	e7d73005 	ldrb	r3, [r7, r5]
47002c24:	e58b3000 	str	r3, [fp]
47002c28:	e59f3080 	ldr	r3, [pc, #128]	; 47002cb0 <i2c_write+0x174>
47002c2c:	e59321f4 	ldr	r2, [r3, #500]	; 0x1f4
47002c30:	e18a2002 	orr	r2, sl, r2
47002c34:	e58321f4 	str	r2, [r3, #500]	; 0x1f4
47002c38:	ebffffac 	bl	47002af0 <wait_interrupt>
47002c3c:	e3700001 	cmn	r0, #1
47002c40:	0a00000f 	beq	47002c84 <i2c_write+0x148>
47002c44:	e1a00004 	mov	r0, r4
47002c48:	ebffff71 	bl	47002a14 <check_port_ack>
47002c4c:	e3700001 	cmn	r0, #1
47002c50:	0a00000b 	beq	47002c84 <i2c_write+0x148>
47002c54:	e2855001 	add	r5, r5, #1
47002c58:	e1550008 	cmp	r5, r8
47002c5c:	baffffeb 	blt	47002c10 <i2c_write+0xd4>
47002c60:	e1a00004 	mov	r0, r4
47002c64:	e3a01000 	mov	r1, #0
47002c68:	ebffff50 	bl	470029b0 <send_stop_packet>
47002c6c:	e59f303c 	ldr	r3, [pc, #60]	; 47002cb0 <i2c_write+0x174>
47002c70:	e3a00000 	mov	r0, #0
47002c74:	e59321f4 	ldr	r2, [r3, #500]	; 0x1f4
47002c78:	e18aa002 	orr	sl, sl, r2
47002c7c:	e583a1f4 	str	sl, [r3, #500]	; 0x1f4
47002c80:	e8bd8ff8 	pop	{r3, r4, r5, r6, r7, r8, r9, sl, fp, pc}
47002c84:	e1a00004 	mov	r0, r4
47002c88:	e3a01000 	mov	r1, #0
47002c8c:	ebffff47 	bl	470029b0 <send_stop_packet>
47002c90:	e59f3018 	ldr	r3, [pc, #24]	; 47002cb0 <i2c_write+0x174>
47002c94:	e3a01001 	mov	r1, #1
47002c98:	e3e00000 	mvn	r0, #0
47002c9c:	e59321f4 	ldr	r2, [r3, #500]	; 0x1f4
47002ca0:	e1824411 	orr	r4, r2, r1, lsl r4
47002ca4:	e58341f4 	str	r4, [r3, #500]	; 0x1f4
47002ca8:	e8bd8ff8 	pop	{r3, r4, r5, r6, r7, r8, r9, sl, fp, pc}
47002cac:	01804808 	.word	0x01804808
47002cb0:	30090000 	.word	0x30090000

47002cb4 <i2c_read>:
47002cb4:	e92d4ff7 	push	{r0, r1, r2, r4, r5, r6, r7, r8, r9, sl, fp, lr}
47002cb8:	e59f61f0 	ldr	r6, [pc, #496]	; 47002eb0 <i2c_read+0x1fc>
47002cbc:	e1a0a003 	mov	sl, r3
47002cc0:	e1a04000 	mov	r4, r0
47002cc4:	e0806006 	add	r6, r0, r6
47002cc8:	e1a05002 	mov	r5, r2
47002ccc:	e3a02000 	mov	r2, #0
47002cd0:	e58d1004 	str	r1, [sp, #4]
47002cd4:	e1a06286 	lsl	r6, r6, #5
47002cd8:	e5963000 	ldr	r3, [r6]
47002cdc:	e20330ff 	and	r3, r3, #255	; 0xff
47002ce0:	e5863000 	str	r3, [r6]
47002ce4:	ebffff11 	bl	47002930 <send_start_packet>
47002ce8:	e1a00004 	mov	r0, r4
47002cec:	ebffff7f 	bl	47002af0 <wait_interrupt>
47002cf0:	e3700001 	cmn	r0, #1
47002cf4:	0a000063 	beq	47002e88 <i2c_read+0x1d4>
47002cf8:	e1a00004 	mov	r0, r4
47002cfc:	ebffff44 	bl	47002a14 <check_port_ack>
47002d00:	e3700001 	cmn	r0, #1
47002d04:	0a00005f 	beq	47002e88 <i2c_read+0x1d4>
47002d08:	e59f81a4 	ldr	r8, [pc, #420]	; 47002eb4 <i2c_read+0x200>
47002d0c:	e7e73455 	ubfx	r3, r5, #8, #8
47002d10:	e3a0b001 	mov	fp, #1
47002d14:	e586300c 	str	r3, [r6, #12]
47002d18:	e1a0741b 	lsl	r7, fp, r4
47002d1c:	e1a00004 	mov	r0, r4
47002d20:	e59831f4 	ldr	r3, [r8, #500]	; 0x1f4
47002d24:	e286900c 	add	r9, r6, #12
47002d28:	e1873003 	orr	r3, r7, r3
47002d2c:	e58831f4 	str	r3, [r8, #500]	; 0x1f4
47002d30:	ebffff6e 	bl	47002af0 <wait_interrupt>
47002d34:	e3700001 	cmn	r0, #1
47002d38:	0a000052 	beq	47002e88 <i2c_read+0x1d4>
47002d3c:	e1a00004 	mov	r0, r4
47002d40:	ebffff33 	bl	47002a14 <check_port_ack>
47002d44:	e3700001 	cmn	r0, #1
47002d48:	0a00004e 	beq	47002e88 <i2c_read+0x1d4>
47002d4c:	e20550ff 	and	r5, r5, #255	; 0xff
47002d50:	e586500c 	str	r5, [r6, #12]
47002d54:	e59831f4 	ldr	r3, [r8, #500]	; 0x1f4
47002d58:	e1a00004 	mov	r0, r4
47002d5c:	e1873003 	orr	r3, r7, r3
47002d60:	e58831f4 	str	r3, [r8, #500]	; 0x1f4
47002d64:	ebffff61 	bl	47002af0 <wait_interrupt>
47002d68:	e3700001 	cmn	r0, #1
47002d6c:	0a000045 	beq	47002e88 <i2c_read+0x1d4>
47002d70:	e1a00004 	mov	r0, r4
47002d74:	ebffff26 	bl	47002a14 <check_port_ack>
47002d78:	e3700001 	cmn	r0, #1
47002d7c:	0a000041 	beq	47002e88 <i2c_read+0x1d4>
47002d80:	e1a00004 	mov	r0, r4
47002d84:	e59d1004 	ldr	r1, [sp, #4]
47002d88:	e1a0200b 	mov	r2, fp
47002d8c:	ebfffee7 	bl	47002930 <send_start_packet>
47002d90:	e59831f4 	ldr	r3, [r8, #500]	; 0x1f4
47002d94:	e1a00004 	mov	r0, r4
47002d98:	e1873003 	orr	r3, r7, r3
47002d9c:	e58831f4 	str	r3, [r8, #500]	; 0x1f4
47002da0:	ebffff52 	bl	47002af0 <wait_interrupt>
47002da4:	e3700001 	cmn	r0, #1
47002da8:	0a000036 	beq	47002e88 <i2c_read+0x1d4>
47002dac:	e1a00004 	mov	r0, r4
47002db0:	ebffff17 	bl	47002a14 <check_port_ack>
47002db4:	e3700001 	cmn	r0, #1
47002db8:	13a08000 	movne	r8, #0
47002dbc:	1a000012 	bne	47002e0c <i2c_read+0x158>
47002dc0:	ea000030 	b	47002e88 <i2c_read+0x1d4>
47002dc4:	e5963000 	ldr	r3, [r6]
47002dc8:	e1a00004 	mov	r0, r4
47002dcc:	e3833c01 	orr	r3, r3, #256	; 0x100
47002dd0:	e5863000 	str	r3, [r6]
47002dd4:	e59f30d8 	ldr	r3, [pc, #216]	; 47002eb4 <i2c_read+0x200>
47002dd8:	e59321f4 	ldr	r2, [r3, #500]	; 0x1f4
47002ddc:	e1872002 	orr	r2, r7, r2
47002de0:	e58321f4 	str	r2, [r3, #500]	; 0x1f4
47002de4:	ebffff41 	bl	47002af0 <wait_interrupt>
47002de8:	e3700001 	cmn	r0, #1
47002dec:	0a000025 	beq	47002e88 <i2c_read+0x1d4>
47002df0:	e1a00004 	mov	r0, r4
47002df4:	ebffff06 	bl	47002a14 <check_port_ack>
47002df8:	e3700001 	cmn	r0, #1
47002dfc:	0a000021 	beq	47002e88 <i2c_read+0x1d4>
47002e00:	e5993000 	ldr	r3, [r9]
47002e04:	e7ca3008 	strb	r3, [sl, r8]
47002e08:	e2888001 	add	r8, r8, #1
47002e0c:	e59d2030 	ldr	r2, [sp, #48]	; 0x30
47002e10:	e2423001 	sub	r3, r2, #1
47002e14:	e1580003 	cmp	r8, r3
47002e18:	baffffe9 	blt	47002dc4 <i2c_read+0x110>
47002e1c:	e59f5090 	ldr	r5, [pc, #144]	; 47002eb4 <i2c_read+0x200>
47002e20:	e1a00004 	mov	r0, r4
47002e24:	e5963000 	ldr	r3, [r6]
47002e28:	e3c33c01 	bic	r3, r3, #256	; 0x100
47002e2c:	e5863000 	str	r3, [r6]
47002e30:	e59531f4 	ldr	r3, [r5, #500]	; 0x1f4
47002e34:	e1873003 	orr	r3, r7, r3
47002e38:	e58531f4 	str	r3, [r5, #500]	; 0x1f4
47002e3c:	ebffff2b 	bl	47002af0 <wait_interrupt>
47002e40:	e3700001 	cmn	r0, #1
47002e44:	0a00000f 	beq	47002e88 <i2c_read+0x1d4>
47002e48:	e596300c 	ldr	r3, [r6, #12]
47002e4c:	e1a00004 	mov	r0, r4
47002e50:	e3a01001 	mov	r1, #1
47002e54:	e7ca3008 	strb	r3, [sl, r8]
47002e58:	e59531f4 	ldr	r3, [r5, #500]	; 0x1f4
47002e5c:	e1873003 	orr	r3, r7, r3
47002e60:	e58531f4 	str	r3, [r5, #500]	; 0x1f4
47002e64:	ebfffed1 	bl	470029b0 <send_stop_packet>
47002e68:	e59531f4 	ldr	r3, [r5, #500]	; 0x1f4
47002e6c:	e3a00000 	mov	r0, #0
47002e70:	e1877003 	orr	r7, r7, r3
47002e74:	e58571f4 	str	r7, [r5, #500]	; 0x1f4
47002e78:	e5963000 	ldr	r3, [r6]
47002e7c:	e3833c01 	orr	r3, r3, #256	; 0x100
47002e80:	e5863000 	str	r3, [r6]
47002e84:	ea000008 	b	47002eac <i2c_read+0x1f8>
47002e88:	e1a00004 	mov	r0, r4
47002e8c:	e3a01001 	mov	r1, #1
47002e90:	ebfffec6 	bl	470029b0 <send_stop_packet>
47002e94:	e59f3018 	ldr	r3, [pc, #24]	; 47002eb4 <i2c_read+0x200>
47002e98:	e3a01001 	mov	r1, #1
47002e9c:	e3e00000 	mvn	r0, #0
47002ea0:	e59321f4 	ldr	r2, [r3, #500]	; 0x1f4
47002ea4:	e1824411 	orr	r4, r2, r1, lsl r4
47002ea8:	e58341f4 	str	r4, [r3, #500]	; 0x1f4
47002eac:	e8bd8ffe 	pop	{r1, r2, r3, r4, r5, r6, r7, r8, r9, sl, fp, pc}
47002eb0:	01804808 	.word	0x01804808
47002eb4:	30090000 	.word	0x30090000

47002eb8 <atoi>:
47002eb8:	e3a03000 	mov	r3, #0
47002ebc:	e1a02003 	mov	r2, r3
47002ec0:	ea000005 	b	47002edc <atoi+0x24>
47002ec4:	e2411030 	sub	r1, r1, #48	; 0x30
47002ec8:	e2822001 	add	r2, r2, #1
47002ecc:	e6efc071 	uxtb	ip, r1
47002ed0:	e35c0009 	cmp	ip, #9
47002ed4:	93a0c00a 	movls	ip, #10
47002ed8:	9023139c 	mlals	r3, ip, r3, r1
47002edc:	e7d01002 	ldrb	r1, [r0, r2]
47002ee0:	e3510000 	cmp	r1, #0
47002ee4:	1afffff6 	bne	47002ec4 <atoi+0xc>
47002ee8:	e1a00003 	mov	r0, r3
47002eec:	e12fff1e 	bx	lr

47002ef0 <fast_logo>:
47002ef0:	e92d407f 	push	{r0, r1, r2, r3, r4, r5, r6, lr}
47002ef4:	e59f30f0 	ldr	r3, [pc, #240]	; 47002fec <fast_logo+0xfc>
47002ef8:	e3a04000 	mov	r4, #0
47002efc:	e5cd400c 	strb	r4, [sp, #12]
47002f00:	e5cd400d 	strb	r4, [sp, #13]
47002f04:	e1a05000 	mov	r5, r0
47002f08:	e5932db4 	ldr	r2, [r3, #3508]	; 0xdb4
47002f0c:	e3822802 	orr	r2, r2, #131072	; 0x20000
47002f10:	e5832db4 	str	r2, [r3, #3508]	; 0xdb4
47002f14:	e5936dbc 	ldr	r6, [r3, #3516]	; 0xdbc
47002f18:	e7e06256 	ubfx	r6, r6, #4, #1
47002f1c:	e1560004 	cmp	r6, r4
47002f20:	0a000012 	beq	47002f70 <fast_logo+0x80>
47002f24:	e3a010ce 	mov	r1, #206	; 0xce
47002f28:	e3a020c8 	mov	r2, #200	; 0xc8
47002f2c:	e3a00004 	mov	r0, #4
47002f30:	ebfffebf 	bl	47002a34 <i2c_init>
47002f34:	e3a03002 	mov	r3, #2
47002f38:	e3a010ce 	mov	r1, #206	; 0xce
47002f3c:	e58d3000 	str	r3, [sp]
47002f40:	e3a02006 	mov	r2, #6
47002f44:	e28d300c 	add	r3, sp, #12
47002f48:	e3a00004 	mov	r0, #4
47002f4c:	e5cd400c 	strb	r4, [sp, #12]
47002f50:	e5cd400d 	strb	r4, [sp, #13]
47002f54:	ebfffef8 	bl	47002b3c <i2c_write>
47002f58:	e1a01005 	mov	r1, r5
47002f5c:	e1a02004 	mov	r2, r4
47002f60:	e1a06000 	mov	r6, r0
47002f64:	e3a00051 	mov	r0, #81	; 0x51
47002f68:	ebfffd1b 	bl	470023dc <micom_cmd>
47002f6c:	ea00001b 	b	47002fe0 <fast_logo+0xf0>
47002f70:	e3a01001 	mov	r1, #1
47002f74:	e1a02006 	mov	r2, r6
47002f78:	e3a000cc 	mov	r0, #204	; 0xcc
47002f7c:	e59f406c 	ldr	r4, [pc, #108]	; 47002ff0 <fast_logo+0x100>
47002f80:	ebfffd15 	bl	470023dc <micom_cmd>
47002f84:	e3a00004 	mov	r0, #4
47002f88:	e3a010c0 	mov	r1, #192	; 0xc0
47002f8c:	e3a02e19 	mov	r2, #400	; 0x190
47002f90:	ebfffea7 	bl	47002a34 <i2c_init>
47002f94:	e284502c 	add	r5, r4, #44	; 0x2c
47002f98:	ea00000e 	b	47002fd8 <fast_logo+0xe8>
47002f9c:	e1d430b0 	ldrh	r3, [r4]
47002fa0:	e3a00004 	mov	r0, #4
47002fa4:	e3a010c0 	mov	r1, #192	; 0xc0
47002fa8:	e1a02423 	lsr	r2, r3, #8
47002fac:	e5cd300d 	strb	r3, [sp, #13]
47002fb0:	e5cd200c 	strb	r2, [sp, #12]
47002fb4:	e3a03002 	mov	r3, #2
47002fb8:	e15420b2 	ldrh	r2, [r4, #-2]
47002fbc:	e2844004 	add	r4, r4, #4
47002fc0:	e58d3000 	str	r3, [sp]
47002fc4:	e28d300c 	add	r3, sp, #12
47002fc8:	ebfffedb 	bl	47002b3c <i2c_write>
47002fcc:	e3700001 	cmn	r0, #1
47002fd0:	e1a06000 	mov	r6, r0
47002fd4:	0a000001 	beq	47002fe0 <fast_logo+0xf0>
47002fd8:	e1540005 	cmp	r4, r5
47002fdc:	1affffee 	bne	47002f9c <fast_logo+0xac>
47002fe0:	e1a00006 	mov	r0, r6
47002fe4:	e28dd010 	add	sp, sp, #16
47002fe8:	e8bd8070 	pop	{r4, r5, r6, pc}
47002fec:	30090000 	.word	0x30090000
47002ff0:	4700393a 	.word	0x4700393a

47002ff4 <FastLogo>:
47002ff4:	e3a00064 	mov	r0, #100	; 0x64
47002ff8:	eaffffbc 	b	47002ef0 <fast_logo>

47002ffc <get_uImage_size>:
47002ffc:	e3a02446 	mov	r2, #1174405120	; 0x46000000
47003000:	e1a03000 	mov	r3, r0
47003004:	e5922000 	ldr	r2, [r2]
47003008:	e3a00001 	mov	r0, #1
4700300c:	e92d4010 	push	{r4, lr}
47003010:	e3520000 	cmp	r2, #0
47003014:	e1a04001 	mov	r4, r1
47003018:	01a01483 	lsleq	r1, r3, #9
4700301c:	11a01003 	movne	r1, r3
47003020:	e1a02004 	mov	r2, r4
47003024:	e3a03b01 	mov	r3, #1024	; 0x400
47003028:	ebfff5fc 	bl	47000820 <sdp_mmc_RW>
4700302c:	e3500000 	cmp	r0, #0
47003030:	18bd8010 	popne	{r4, pc}
47003034:	e594300c 	ldr	r3, [r4, #12]
47003038:	e2032cff 	and	r2, r3, #65280	; 0xff00
4700303c:	e1a00c03 	lsl	r0, r3, #24
47003040:	e1800c23 	orr	r0, r0, r3, lsr #24
47003044:	e20338ff 	and	r3, r3, #16711680	; 0xff0000
47003048:	e1800402 	orr	r0, r0, r2, lsl #8
4700304c:	e1800423 	orr	r0, r0, r3, lsr #8
47003050:	e8bd8010 	pop	{r4, pc}

47003054 <_ShadowOS>:
47003054:	e92d4038 	push	{r3, r4, r5, lr}
47003058:	e1a04001 	mov	r4, r1
4700305c:	e3510004 	cmp	r1, #4
47003060:	13a02000 	movne	r2, #0
47003064:	03a02001 	moveq	r2, #1
47003068:	e3510006 	cmp	r1, #6
4700306c:	13a03000 	movne	r3, #0
47003070:	03a03001 	moveq	r3, #1
47003074:	e1931002 	orrs	r1, r3, r2
47003078:	0a00001d 	beq	470030f4 <_ShadowOS+0xa0>
4700307c:	e3520000 	cmp	r2, #0
47003080:	13a03446 	movne	r3, #1174405120	; 0x46000000
47003084:	13a04e41 	movne	r4, #1040	; 0x410
47003088:	15933000 	ldrne	r3, [r3]
4700308c:	1a000004 	bne	470030a4 <_ShadowOS+0x50>
47003090:	e3530000 	cmp	r3, #0
47003094:	13a03446 	movne	r3, #1174405120	; 0x46000000
47003098:	01a04003 	moveq	r4, r3
4700309c:	15933000 	ldrne	r3, [r3]
470030a0:	13064820 	movwne	r4, #26656	; 0x6820
470030a4:	e59f10a0 	ldr	r1, [pc, #160]	; 4700314c <_ShadowOS+0xf8>
470030a8:	e1a00004 	mov	r0, r4
470030ac:	ebffffd2 	bl	47002ffc <get_uImage_size>
470030b0:	e3a02446 	mov	r2, #1174405120	; 0x46000000
470030b4:	e5922000 	ldr	r2, [r2]
470030b8:	e2841002 	add	r1, r4, #2
470030bc:	e3520000 	cmp	r2, #0
470030c0:	e59f2088 	ldr	r2, [pc, #136]	; 47003150 <_ShadowOS+0xfc>
470030c4:	01a01481 	lsleq	r1, r1, #9
470030c8:	e2803040 	add	r3, r0, #64	; 0x40
470030cc:	e3a00001 	mov	r0, #1
470030d0:	e3c33f7f 	bic	r3, r3, #508	; 0x1fc
470030d4:	e3c33003 	bic	r3, r3, #3
470030d8:	ebfff5d0 	bl	47000820 <sdp_mmc_RW>
470030dc:	e3500000 	cmp	r0, #0
470030e0:	18bd8038 	popne	{r3, r4, r5, pc}
470030e4:	e59f0068 	ldr	r0, [pc, #104]	; 47003154 <_ShadowOS+0x100>
470030e8:	ebfffc78 	bl	470022d0 <PRINTF>
470030ec:	e59f0064 	ldr	r0, [pc, #100]	; 47003158 <_ShadowOS+0x104>
470030f0:	e8bd8038 	pop	{r3, r4, r5, pc}
470030f4:	e3540001 	cmp	r4, #1
470030f8:	18bd8038 	popne	{r3, r4, r5, pc}
470030fc:	e3a05446 	mov	r5, #1174405120	; 0x46000000
47003100:	e59f0054 	ldr	r0, [pc, #84]	; 4700315c <_ShadowOS+0x108>
47003104:	e5951000 	ldr	r1, [r5]
47003108:	ebfffc70 	bl	470022d0 <PRINTF>
4700310c:	e5953000 	ldr	r3, [r5]
47003110:	e1a00004 	mov	r0, r4
47003114:	e59f2044 	ldr	r2, [pc, #68]	; 47003160 <_ShadowOS+0x10c>
47003118:	e3530000 	cmp	r3, #0
4700311c:	e3a03702 	mov	r3, #524288	; 0x80000
47003120:	13a01010 	movne	r1, #16
47003124:	03a01a02 	moveq	r1, #8192	; 0x2000
47003128:	ebfff5bc 	bl	47000820 <sdp_mmc_RW>
4700312c:	e3500000 	cmp	r0, #0
47003130:	e1a04000 	mov	r4, r0
47003134:	059f0024 	ldreq	r0, [pc, #36]	; 47003160 <_ShadowOS+0x10c>
47003138:	08bd8038 	popeq	{r3, r4, r5, pc}
4700313c:	e59f0020 	ldr	r0, [pc, #32]	; 47003164 <_ShadowOS+0x110>
47003140:	ebfffc62 	bl	470022d0 <PRINTF>
47003144:	e1a00004 	mov	r0, r4
47003148:	e8bd8038 	pop	{r3, r4, r5, pc}
4700314c:	40007fc0 	.word	0x40007fc0
47003150:	400083c0 	.word	0x400083c0
47003154:	47003b3c 	.word	0x47003b3c
47003158:	40008000 	.word	0x40008000
4700315c:	47003b42 	.word	0x47003b42
47003160:	47c00000 	.word	0x47c00000
47003164:	47003b6c 	.word	0x47003b6c

47003168 <_SelectBootMode>:
47003168:	e92d4008 	push	{r3, lr}
4700316c:	e1a01000 	mov	r1, r0
47003170:	e3a00000 	mov	r0, #0
47003174:	ebffffb6 	bl	47003054 <_ShadowOS>
47003178:	e2503000 	subs	r3, r0, #0
4700317c:	0a000005 	beq	47003198 <_SelectBootMode+0x30>
47003180:	e59f2014 	ldr	r2, [pc, #20]	; 4700319c <_SelectBootMode+0x34>
47003184:	e3a00000 	mov	r0, #0
47003188:	e1a01000 	mov	r1, r0
4700318c:	e5823000 	str	r3, [r2]
47003190:	e12fff33 	blx	r3
47003194:	e8bd8008 	pop	{r3, pc}
47003198:	eafffffe 	b	47003198 <_SelectBootMode+0x30>
4700319c:	47007b04 	.word	0x47007b04

470031a0 <setup_sdp_memtag>:
470031a0:	e92d407f 	push	{r0, r1, r2, r3, r4, r5, r6, lr}
470031a4:	e59f110c 	ldr	r1, [pc, #268]	; 470032b8 <setup_sdp_memtag+0x118>
470031a8:	e3a02011 	mov	r2, #17
470031ac:	e28d0004 	add	r0, sp, #4
470031b0:	ebfffd41 	bl	470026bc <memcpy>
470031b4:	e3a01000 	mov	r1, #0
470031b8:	e3a02028 	mov	r2, #40	; 0x28
470031bc:	e59f00f8 	ldr	r0, [pc, #248]	; 470032bc <setup_sdp_memtag+0x11c>
470031c0:	ebfffd68 	bl	47002768 <memset>
470031c4:	e59f30f0 	ldr	r3, [pc, #240]	; 470032bc <setup_sdp_memtag+0x11c>
470031c8:	e3a02f41 	mov	r2, #260	; 0x104
470031cc:	e3a010b4 	mov	r1, #180	; 0xb4
470031d0:	e5832010 	str	r2, [r3, #16]
470031d4:	e28220fc 	add	r2, r2, #252	; 0xfc
470031d8:	e5832014 	str	r2, [r3, #20]
470031dc:	e2422e17 	sub	r2, r2, #368	; 0x170
470031e0:	e5832018 	str	r2, [r3, #24]
470031e4:	e2822070 	add	r2, r2, #112	; 0x70
470031e8:	e583201c 	str	r2, [r3, #28]
470031ec:	e5831020 	str	r1, [r3, #32]
470031f0:	e5832024 	str	r2, [r3, #36]	; 0x24
470031f4:	e5931010 	ldr	r1, [r3, #16]
470031f8:	e5932014 	ldr	r2, [r3, #20]
470031fc:	e1510002 	cmp	r1, r2
47003200:	8a000023 	bhi	47003294 <setup_sdp_memtag+0xf4>
47003204:	e5931018 	ldr	r1, [r3, #24]
47003208:	e593201c 	ldr	r2, [r3, #28]
4700320c:	e1510002 	cmp	r1, r2
47003210:	8a00001f 	bhi	47003294 <setup_sdp_memtag+0xf4>
47003214:	e5931020 	ldr	r1, [r3, #32]
47003218:	e5932024 	ldr	r2, [r3, #36]	; 0x24
4700321c:	e1510002 	cmp	r1, r2
47003220:	8a00001b 	bhi	47003294 <setup_sdp_memtag+0xf4>
47003224:	e5932014 	ldr	r2, [r3, #20]
47003228:	e3520202 	cmp	r2, #536870912	; 0x20000000
4700322c:	8a000018 	bhi	47003294 <setup_sdp_memtag+0xf4>
47003230:	e593201c 	ldr	r2, [r3, #28]
47003234:	e3520202 	cmp	r2, #536870912	; 0x20000000
47003238:	8a000015 	bhi	47003294 <setup_sdp_memtag+0xf4>
4700323c:	e5932024 	ldr	r2, [r3, #36]	; 0x24
47003240:	e3520202 	cmp	r2, #536870912	; 0x20000000
47003244:	8a000012 	bhi	47003294 <setup_sdp_memtag+0xf4>
47003248:	e5932010 	ldr	r2, [r3, #16]
4700324c:	e3520000 	cmp	r2, #0
47003250:	1a000005 	bne	4700326c <setup_sdp_memtag+0xcc>
47003254:	e5932018 	ldr	r2, [r3, #24]
47003258:	e3520000 	cmp	r2, #0
4700325c:	1a000002 	bne	4700326c <setup_sdp_memtag+0xcc>
47003260:	e5933020 	ldr	r3, [r3, #32]
47003264:	e3530000 	cmp	r3, #0
47003268:	0a000009 	beq	47003294 <setup_sdp_memtag+0xf4>
4700326c:	e59f3048 	ldr	r3, [pc, #72]	; 470032bc <setup_sdp_memtag+0x11c>
47003270:	e5932014 	ldr	r2, [r3, #20]
47003274:	e3520000 	cmp	r2, #0
47003278:	1a000008 	bne	470032a0 <setup_sdp_memtag+0x100>
4700327c:	e593201c 	ldr	r2, [r3, #28]
47003280:	e3520000 	cmp	r2, #0
47003284:	1a000005 	bne	470032a0 <setup_sdp_memtag+0x100>
47003288:	e5933024 	ldr	r3, [r3, #36]	; 0x24
4700328c:	e3530000 	cmp	r3, #0
47003290:	1a000002 	bne	470032a0 <setup_sdp_memtag+0x100>
47003294:	e59f0024 	ldr	r0, [pc, #36]	; 470032c0 <setup_sdp_memtag+0x120>
47003298:	ebfffc0c 	bl	470022d0 <PRINTF>
4700329c:	ea000003 	b	470032b0 <setup_sdp_memtag+0x110>
470032a0:	e59f0014 	ldr	r0, [pc, #20]	; 470032bc <setup_sdp_memtag+0x11c>
470032a4:	e28d1004 	add	r1, sp, #4
470032a8:	e3a02010 	mov	r2, #16
470032ac:	ebfffd02 	bl	470026bc <memcpy>
470032b0:	e28dd01c 	add	sp, sp, #28
470032b4:	e49df004 	pop	{pc}		; (ldr pc, [sp], #4)
470032b8:	47003bc2 	.word	0x47003bc2
470032bc:	40000a00 	.word	0x40000a00
470032c0:	47003b7c 	.word	0x47003b7c

470032c4 <markKernel_ext3>:
470032c4:	e59f3038 	ldr	r3, [pc, #56]	; 47003304 <markKernel_ext3+0x40>
470032c8:	e3500004 	cmp	r0, #4
470032cc:	e92d4010 	push	{r4, lr}
470032d0:	e3a02c01 	mov	r2, #256	; 0x100
470032d4:	05934000 	ldreq	r4, [r3]
470032d8:	e3a01000 	mov	r1, #0
470032dc:	15934004 	ldrne	r4, [r3, #4]
470032e0:	e59f0020 	ldr	r0, [pc, #32]	; 47003308 <markKernel_ext3+0x44>
470032e4:	ebfffd1f 	bl	47002768 <memset>
470032e8:	e59f0018 	ldr	r0, [pc, #24]	; 47003308 <markKernel_ext3+0x44>
470032ec:	ebfffcb8 	bl	470025d4 <setup_start_tag>
470032f0:	e1a01004 	mov	r1, r4
470032f4:	ebfffcc1 	bl	47002600 <setup_commandline_tag>
470032f8:	ebfffceb 	bl	470026ac <setup_end_tag>
470032fc:	e8bd4010 	pop	{r4, lr}
47003300:	eaffffa6 	b	470031a0 <setup_sdp_memtag>
47003304:	47007ad0 	.word	0x47007ad0
47003308:	40000100 	.word	0x40000100

4700330c <markKernelCMD>:
4700330c:	e59f3038 	ldr	r3, [pc, #56]	; 4700334c <markKernelCMD+0x40>
47003310:	e3500004 	cmp	r0, #4
47003314:	e92d4010 	push	{r4, lr}
47003318:	e3a02c01 	mov	r2, #256	; 0x100
4700331c:	05934008 	ldreq	r4, [r3, #8]
47003320:	e3a01000 	mov	r1, #0
47003324:	1593400c 	ldrne	r4, [r3, #12]
47003328:	e59f0020 	ldr	r0, [pc, #32]	; 47003350 <markKernelCMD+0x44>
4700332c:	ebfffd0d 	bl	47002768 <memset>
47003330:	e59f0018 	ldr	r0, [pc, #24]	; 47003350 <markKernelCMD+0x44>
47003334:	ebfffca6 	bl	470025d4 <setup_start_tag>
47003338:	e1a01004 	mov	r1, r4
4700333c:	ebfffcaf 	bl	47002600 <setup_commandline_tag>
47003340:	ebfffcd9 	bl	470026ac <setup_end_tag>
47003344:	e8bd4010 	pop	{r4, lr}
47003348:	eaffff94 	b	470031a0 <setup_sdp_memtag>
4700334c:	47007ad0 	.word	0x47007ad0
47003350:	40000100 	.word	0x40000100

47003354 <Main>:
47003354:	e92d4038 	push	{r3, r4, r5, lr}
47003358:	e59f5344 	ldr	r5, [pc, #836]	; 470036a4 <Main+0x350>
4700335c:	ebfffd6b 	bl	47002910 <sdp_peri_init>
47003360:	ebfffb6b 	bl	47002114 <timer_init>
47003364:	ebfffc75 	bl	47002540 <serial_init>
47003368:	e59f0338 	ldr	r0, [pc, #824]	; 470036a8 <Main+0x354>
4700336c:	e5953d00 	ldr	r3, [r5, #3328]	; 0xd00
47003370:	e3833202 	orr	r3, r3, #536870912	; 0x20000000
47003374:	e5853d00 	str	r3, [r5, #3328]	; 0xd00
47003378:	e5954d08 	ldr	r4, [r5, #3336]	; 0xd08
4700337c:	e7e043d4 	ubfx	r4, r4, #7, #1
47003380:	e3540000 	cmp	r4, #0
47003384:	13a01002 	movne	r1, #2
47003388:	03a01001 	moveq	r1, #1
4700338c:	ebfffbcf 	bl	470022d0 <PRINTF>
47003390:	e59f0314 	ldr	r0, [pc, #788]	; 470036ac <Main+0x358>
47003394:	ebfffbcd 	bl	470022d0 <PRINTF>
47003398:	e5953d00 	ldr	r3, [r5, #3328]	; 0xd00
4700339c:	e59f030c 	ldr	r0, [pc, #780]	; 470036b0 <Main+0x35c>
470033a0:	e3833003 	orr	r3, r3, #3
470033a4:	e5853d00 	str	r3, [r5, #3328]	; 0xd00
470033a8:	e5953d04 	ldr	r3, [r5, #3332]	; 0xd04
470033ac:	e3833001 	orr	r3, r3, #1
470033b0:	e5853d04 	str	r3, [r5, #3332]	; 0xd04
470033b4:	ebfffb98 	bl	4700221c <serial_getc_check>
470033b8:	e6ef0070 	uxtb	r0, r0
470033bc:	e350007e 	cmp	r0, #126	; 0x7e
470033c0:	03a00001 	moveq	r0, #1
470033c4:	0a0000a0 	beq	4700364c <Main+0x2f8>
470033c8:	e3500023 	cmp	r0, #35	; 0x23
470033cc:	1a000002 	bne	470033dc <Main+0x88>
470033d0:	e59f02dc 	ldr	r0, [pc, #732]	; 470036b4 <Main+0x360>
470033d4:	ebfffbbd 	bl	470022d0 <PRINTF>
470033d8:	ea0000a1 	b	47003664 <Main+0x310>
470033dc:	e350002d 	cmp	r0, #45	; 0x2d
470033e0:	1a0000a0 	bne	47003668 <Main+0x314>
470033e4:	e59f02cc 	ldr	r0, [pc, #716]	; 470036b8 <Main+0x364>
470033e8:	ebfffbb8 	bl	470022d0 <PRINTF>
470033ec:	e59f02c8 	ldr	r0, [pc, #712]	; 470036bc <Main+0x368>
470033f0:	ebfffbb6 	bl	470022d0 <PRINTF>
470033f4:	e59f02bc 	ldr	r0, [pc, #700]	; 470036b8 <Main+0x364>
470033f8:	ebfffbb4 	bl	470022d0 <PRINTF>
470033fc:	e59f02bc 	ldr	r0, [pc, #700]	; 470036c0 <Main+0x36c>
47003400:	ebfffbb2 	bl	470022d0 <PRINTF>
47003404:	e59f02b8 	ldr	r0, [pc, #696]	; 470036c4 <Main+0x370>
47003408:	ebfffbb0 	bl	470022d0 <PRINTF>
4700340c:	e59f02b4 	ldr	r0, [pc, #692]	; 470036c8 <Main+0x374>
47003410:	ebfffbae 	bl	470022d0 <PRINTF>
47003414:	e59f02b0 	ldr	r0, [pc, #688]	; 470036cc <Main+0x378>
47003418:	ebfffbac 	bl	470022d0 <PRINTF>
4700341c:	e59f02ac 	ldr	r0, [pc, #684]	; 470036d0 <Main+0x37c>
47003420:	ebfffbaa 	bl	470022d0 <PRINTF>
47003424:	e59f02a8 	ldr	r0, [pc, #680]	; 470036d4 <Main+0x380>
47003428:	ebfffba8 	bl	470022d0 <PRINTF>
4700342c:	e59f02a4 	ldr	r0, [pc, #676]	; 470036d8 <Main+0x384>
47003430:	ebfffba6 	bl	470022d0 <PRINTF>
47003434:	e59f02a0 	ldr	r0, [pc, #672]	; 470036dc <Main+0x388>
47003438:	ebfffba4 	bl	470022d0 <PRINTF>
4700343c:	e59f029c 	ldr	r0, [pc, #668]	; 470036e0 <Main+0x38c>
47003440:	ebfffba2 	bl	470022d0 <PRINTF>
47003444:	e59f0298 	ldr	r0, [pc, #664]	; 470036e4 <Main+0x390>
47003448:	ebfffba0 	bl	470022d0 <PRINTF>
4700344c:	e59f0294 	ldr	r0, [pc, #660]	; 470036e8 <Main+0x394>
47003450:	ebfffb9e 	bl	470022d0 <PRINTF>
47003454:	e59f0290 	ldr	r0, [pc, #656]	; 470036ec <Main+0x398>
47003458:	ebfffb9c 	bl	470022d0 <PRINTF>
4700345c:	e59f028c 	ldr	r0, [pc, #652]	; 470036f0 <Main+0x39c>
47003460:	ebfffb9a 	bl	470022d0 <PRINTF>
47003464:	e59f0288 	ldr	r0, [pc, #648]	; 470036f4 <Main+0x3a0>
47003468:	ebfffb98 	bl	470022d0 <PRINTF>
4700346c:	e59f0244 	ldr	r0, [pc, #580]	; 470036b8 <Main+0x364>
47003470:	ebfffb96 	bl	470022d0 <PRINTF>
47003474:	e59f027c 	ldr	r0, [pc, #636]	; 470036f8 <Main+0x3a4>
47003478:	ebfffb94 	bl	470022d0 <PRINTF>
4700347c:	e59f0234 	ldr	r0, [pc, #564]	; 470036b8 <Main+0x364>
47003480:	ebfffb92 	bl	470022d0 <PRINTF>
47003484:	e59f0224 	ldr	r0, [pc, #548]	; 470036b0 <Main+0x35c>
47003488:	ebfffb63 	bl	4700221c <serial_getc_check>
4700348c:	e6ef0070 	uxtb	r0, r0
47003490:	e3500000 	cmp	r0, #0
47003494:	0afffffa 	beq	47003484 <Main+0x130>
47003498:	e3500041 	cmp	r0, #65	; 0x41
4700349c:	13500061 	cmpne	r0, #97	; 0x61
470034a0:	13a01000 	movne	r1, #0
470034a4:	03a01001 	moveq	r1, #1
470034a8:	1a000005 	bne	470034c4 <Main+0x170>
470034ac:	e3a01000 	mov	r1, #0
470034b0:	e3a00035 	mov	r0, #53	; 0x35
470034b4:	e1a02001 	mov	r2, r1
470034b8:	ebfffbc7 	bl	470023dc <micom_cmd>
470034bc:	e59f0238 	ldr	r0, [pc, #568]	; 470036fc <Main+0x3a8>
470034c0:	eaffffee 	b	47003480 <Main+0x12c>
470034c4:	e3500042 	cmp	r0, #66	; 0x42
470034c8:	13500062 	cmpne	r0, #98	; 0x62
470034cc:	13a05000 	movne	r5, #0
470034d0:	03a05001 	moveq	r5, #1
470034d4:	1a000004 	bne	470034ec <Main+0x198>
470034d8:	e3a00035 	mov	r0, #53	; 0x35
470034dc:	e3a02001 	mov	r2, #1
470034e0:	ebfffbbd 	bl	470023dc <micom_cmd>
470034e4:	e59f0214 	ldr	r0, [pc, #532]	; 47003700 <Main+0x3ac>
470034e8:	eaffffe4 	b	47003480 <Main+0x12c>
470034ec:	e3500043 	cmp	r0, #67	; 0x43
470034f0:	13500063 	cmpne	r0, #99	; 0x63
470034f4:	1a000006 	bne	47003514 <Main+0x1c0>
470034f8:	e1a01005 	mov	r1, r5
470034fc:	e59f0200 	ldr	r0, [pc, #512]	; 47003704 <Main+0x3b0>
47003500:	ebfffb72 	bl	470022d0 <PRINTF>
47003504:	ebfffeba 	bl	47002ff4 <FastLogo>
47003508:	e3a00004 	mov	r0, #4
4700350c:	ebffff7e 	bl	4700330c <markKernelCMD>
47003510:	ea000012 	b	47003560 <Main+0x20c>
47003514:	e3500044 	cmp	r0, #68	; 0x44
47003518:	13500064 	cmpne	r0, #100	; 0x64
4700351c:	13a05000 	movne	r5, #0
47003520:	03a05001 	moveq	r5, #1
47003524:	1a000004 	bne	4700353c <Main+0x1e8>
47003528:	e3a01001 	mov	r1, #1
4700352c:	e59f01d0 	ldr	r0, [pc, #464]	; 47003704 <Main+0x3b0>
47003530:	ebfffb66 	bl	470022d0 <PRINTF>
47003534:	ebfffeae 	bl	47002ff4 <FastLogo>
47003538:	ea000045 	b	47003654 <Main+0x300>
4700353c:	e3500045 	cmp	r0, #69	; 0x45
47003540:	13500065 	cmpne	r0, #101	; 0x65
47003544:	1a000009 	bne	47003570 <Main+0x21c>
47003548:	e1a01005 	mov	r1, r5
4700354c:	e59f01b4 	ldr	r0, [pc, #436]	; 47003708 <Main+0x3b4>
47003550:	ebfffb5e 	bl	470022d0 <PRINTF>
47003554:	ebfffea6 	bl	47002ff4 <FastLogo>
47003558:	e3a00004 	mov	r0, #4
4700355c:	ebffff58 	bl	470032c4 <markKernel_ext3>
47003560:	e3a00004 	mov	r0, #4
47003564:	e1a04005 	mov	r4, r5
47003568:	ebfffefe 	bl	47003168 <_SelectBootMode>
4700356c:	ea00003d 	b	47003668 <Main+0x314>
47003570:	e3500046 	cmp	r0, #70	; 0x46
47003574:	13500066 	cmpne	r0, #102	; 0x66
47003578:	1a000006 	bne	47003598 <Main+0x244>
4700357c:	e3a01001 	mov	r1, #1
47003580:	e59f0184 	ldr	r0, [pc, #388]	; 4700370c <Main+0x3b8>
47003584:	ebfffb51 	bl	470022d0 <PRINTF>
47003588:	ebfffe99 	bl	47002ff4 <FastLogo>
4700358c:	e3a00006 	mov	r0, #6
47003590:	ebffff4b 	bl	470032c4 <markKernel_ext3>
47003594:	ea000030 	b	4700365c <Main+0x308>
47003598:	e3500047 	cmp	r0, #71	; 0x47
4700359c:	13500067 	cmpne	r0, #103	; 0x67
470035a0:	13a05000 	movne	r5, #0
470035a4:	03a05001 	moveq	r5, #1
470035a8:	1a000004 	bne	470035c0 <Main+0x26c>
470035ac:	e59f015c 	ldr	r0, [pc, #348]	; 47003710 <Main+0x3bc>
470035b0:	ebfffb46 	bl	470022d0 <PRINTF>
470035b4:	e3a00001 	mov	r0, #1
470035b8:	ebfffeea 	bl	47003168 <_SelectBootMode>
470035bc:	eaffffb0 	b	47003484 <Main+0x130>
470035c0:	e3500048 	cmp	r0, #72	; 0x48
470035c4:	13500068 	cmpne	r0, #104	; 0x68
470035c8:	1a000006 	bne	470035e8 <Main+0x294>
470035cc:	e59f0140 	ldr	r0, [pc, #320]	; 47003714 <Main+0x3c0>
470035d0:	ebfffb3e 	bl	470022d0 <PRINTF>
470035d4:	e1a01005 	mov	r1, r5
470035d8:	e1a02005 	mov	r2, r5
470035dc:	e3a0001d 	mov	r0, #29
470035e0:	ebfffb7d 	bl	470023dc <micom_cmd>
470035e4:	eaffffa6 	b	47003484 <Main+0x130>
470035e8:	e3500049 	cmp	r0, #73	; 0x49
470035ec:	13500069 	cmpne	r0, #105	; 0x69
470035f0:	1a000006 	bne	47003610 <Main+0x2bc>
470035f4:	e59f011c 	ldr	r0, [pc, #284]	; 47003718 <Main+0x3c4>
470035f8:	ebfffb34 	bl	470022d0 <PRINTF>
470035fc:	e3a01000 	mov	r1, #0
47003600:	e1a02001 	mov	r2, r1
47003604:	e3a00012 	mov	r0, #18
47003608:	ebfffb73 	bl	470023dc <micom_cmd>
4700360c:	ea000015 	b	47003668 <Main+0x314>
47003610:	e350004a 	cmp	r0, #74	; 0x4a
47003614:	1350006a 	cmpne	r0, #106	; 0x6a
47003618:	0a000012 	beq	47003668 <Main+0x314>
4700361c:	e3500058 	cmp	r0, #88	; 0x58
47003620:	13500078 	cmpne	r0, #120	; 0x78
47003624:	1affff96 	bne	47003484 <Main+0x130>
47003628:	e1a01004 	mov	r1, r4
4700362c:	e59f00d0 	ldr	r0, [pc, #208]	; 47003704 <Main+0x3b0>
47003630:	ebfffb26 	bl	470022d0 <PRINTF>
47003634:	ebfffe6e 	bl	47002ff4 <FastLogo>
47003638:	e3540000 	cmp	r4, #0
4700363c:	1a000004 	bne	47003654 <Main+0x300>
47003640:	e3a00004 	mov	r0, #4
47003644:	ebffff30 	bl	4700330c <markKernelCMD>
47003648:	e3a00004 	mov	r0, #4
4700364c:	ebfffec5 	bl	47003168 <_SelectBootMode>
47003650:	ea000004 	b	47003668 <Main+0x314>
47003654:	e3a00006 	mov	r0, #6
47003658:	ebffff2b 	bl	4700330c <markKernelCMD>
4700365c:	e3a00006 	mov	r0, #6
47003660:	ebfffec0 	bl	47003168 <_SelectBootMode>
47003664:	e3a04001 	mov	r4, #1
47003668:	e3a00001 	mov	r0, #1
4700366c:	ebfffebd 	bl	47003168 <_SelectBootMode>
47003670:	ebfffe5f 	bl	47002ff4 <FastLogo>
47003674:	e3540000 	cmp	r4, #0
47003678:	1a000004 	bne	47003690 <Main+0x33c>
4700367c:	e3a00004 	mov	r0, #4
47003680:	ebffff21 	bl	4700330c <markKernelCMD>
47003684:	e3a00004 	mov	r0, #4
47003688:	ebfffeb6 	bl	47003168 <_SelectBootMode>
4700368c:	ea000003 	b	470036a0 <Main+0x34c>
47003690:	e3a00006 	mov	r0, #6
47003694:	ebffff1c 	bl	4700330c <markKernelCMD>
47003698:	e3a00006 	mov	r0, #6
4700369c:	ebfffeb1 	bl	47003168 <_SelectBootMode>
470036a0:	eafffffe 	b	470036a0 <Main+0x34c>
470036a4:	30090000 	.word	0x30090000
470036a8:	47003bd3 	.word	0x47003bd3
470036ac:	47003c01 	.word	0x47003c01
470036b0:	00030d40 	.word	0x00030d40
470036b4:	47003c16 	.word	0x47003c16
470036b8:	47003c2d 	.word	0x47003c2d
470036bc:	47003c6e 	.word	0x47003c6e
470036c0:	47003caf 	.word	0x47003caf
470036c4:	47003cc6 	.word	0x47003cc6
470036c8:	47003cdd 	.word	0x47003cdd
470036cc:	47003d1a 	.word	0x47003d1a
470036d0:	47003d57 	.word	0x47003d57
470036d4:	47003d96 	.word	0x47003d96
470036d8:	47003dd5 	.word	0x47003dd5
470036dc:	47003e0e 	.word	0x47003e0e
470036e0:	47003e47 	.word	0x47003e47
470036e4:	47003e7f 	.word	0x47003e7f
470036e8:	47003eb7 	.word	0x47003eb7
470036ec:	47003eda 	.word	0x47003eda
470036f0:	47003eef 	.word	0x47003eef
470036f4:	47003f06 	.word	0x47003f06
470036f8:	47003f24 	.word	0x47003f24
470036fc:	47003f43 	.word	0x47003f43
47003700:	47003f69 	.word	0x47003f69
47003704:	47003f8f 	.word	0x47003f8f
47003708:	47003fbb 	.word	0x47003fbb
4700370c:	47004000 	.word	0x47004000
47003710:	47004044 	.word	0x47004044
47003714:	4700405d 	.word	0x4700405d
47003718:	47004076 	.word	0x47004076

4700371c <__aeabi_uidiv>:
4700371c:	e2512001 	subs	r2, r1, #1
47003720:	012fff1e 	bxeq	lr
47003724:	3a000074 	bcc	470038fc <__aeabi_uidiv+0x1e0>
47003728:	e1500001 	cmp	r0, r1
4700372c:	9a00006b 	bls	470038e0 <__aeabi_uidiv+0x1c4>
47003730:	e1110002 	tst	r1, r2
47003734:	0a00006c 	beq	470038ec <__aeabi_uidiv+0x1d0>
47003738:	e16f3f10 	clz	r3, r0
4700373c:	e16f2f11 	clz	r2, r1
47003740:	e0423003 	sub	r3, r2, r3
47003744:	e273301f 	rsbs	r3, r3, #31
47003748:	10833083 	addne	r3, r3, r3, lsl #1
4700374c:	e3a02000 	mov	r2, #0
47003750:	108ff103 	addne	pc, pc, r3, lsl #2
47003754:	e320f000 	nop	{0}
47003758:	e1500f81 	cmp	r0, r1, lsl #31
4700375c:	e0a22002 	adc	r2, r2, r2
47003760:	20400f81 	subcs	r0, r0, r1, lsl #31
47003764:	e1500f01 	cmp	r0, r1, lsl #30
47003768:	e0a22002 	adc	r2, r2, r2
4700376c:	20400f01 	subcs	r0, r0, r1, lsl #30
47003770:	e1500e81 	cmp	r0, r1, lsl #29
47003774:	e0a22002 	adc	r2, r2, r2
47003778:	20400e81 	subcs	r0, r0, r1, lsl #29
4700377c:	e1500e01 	cmp	r0, r1, lsl #28
47003780:	e0a22002 	adc	r2, r2, r2
47003784:	20400e01 	subcs	r0, r0, r1, lsl #28
47003788:	e1500d81 	cmp	r0, r1, lsl #27
4700378c:	e0a22002 	adc	r2, r2, r2
47003790:	20400d81 	subcs	r0, r0, r1, lsl #27
47003794:	e1500d01 	cmp	r0, r1, lsl #26
47003798:	e0a22002 	adc	r2, r2, r2
4700379c:	20400d01 	subcs	r0, r0, r1, lsl #26
470037a0:	e1500c81 	cmp	r0, r1, lsl #25
470037a4:	e0a22002 	adc	r2, r2, r2
470037a8:	20400c81 	subcs	r0, r0, r1, lsl #25
470037ac:	e1500c01 	cmp	r0, r1, lsl #24
470037b0:	e0a22002 	adc	r2, r2, r2
470037b4:	20400c01 	subcs	r0, r0, r1, lsl #24
470037b8:	e1500b81 	cmp	r0, r1, lsl #23
470037bc:	e0a22002 	adc	r2, r2, r2
470037c0:	20400b81 	subcs	r0, r0, r1, lsl #23
470037c4:	e1500b01 	cmp	r0, r1, lsl #22
470037c8:	e0a22002 	adc	r2, r2, r2
470037cc:	20400b01 	subcs	r0, r0, r1, lsl #22
470037d0:	e1500a81 	cmp	r0, r1, lsl #21
470037d4:	e0a22002 	adc	r2, r2, r2
470037d8:	20400a81 	subcs	r0, r0, r1, lsl #21
470037dc:	e1500a01 	cmp	r0, r1, lsl #20
470037e0:	e0a22002 	adc	r2, r2, r2
470037e4:	20400a01 	subcs	r0, r0, r1, lsl #20
470037e8:	e1500981 	cmp	r0, r1, lsl #19
470037ec:	e0a22002 	adc	r2, r2, r2
470037f0:	20400981 	subcs	r0, r0, r1, lsl #19
470037f4:	e1500901 	cmp	r0, r1, lsl #18
470037f8:	e0a22002 	adc	r2, r2, r2
470037fc:	20400901 	subcs	r0, r0, r1, lsl #18
47003800:	e1500881 	cmp	r0, r1, lsl #17
47003804:	e0a22002 	adc	r2, r2, r2
47003808:	20400881 	subcs	r0, r0, r1, lsl #17
4700380c:	e1500801 	cmp	r0, r1, lsl #16
47003810:	e0a22002 	adc	r2, r2, r2
47003814:	20400801 	subcs	r0, r0, r1, lsl #16
47003818:	e1500781 	cmp	r0, r1, lsl #15
4700381c:	e0a22002 	adc	r2, r2, r2
47003820:	20400781 	subcs	r0, r0, r1, lsl #15
47003824:	e1500701 	cmp	r0, r1, lsl #14
47003828:	e0a22002 	adc	r2, r2, r2
4700382c:	20400701 	subcs	r0, r0, r1, lsl #14
47003830:	e1500681 	cmp	r0, r1, lsl #13
47003834:	e0a22002 	adc	r2, r2, r2
47003838:	20400681 	subcs	r0, r0, r1, lsl #13
4700383c:	e1500601 	cmp	r0, r1, lsl #12
47003840:	e0a22002 	adc	r2, r2, r2
47003844:	20400601 	subcs	r0, r0, r1, lsl #12
47003848:	e1500581 	cmp	r0, r1, lsl #11
4700384c:	e0a22002 	adc	r2, r2, r2
47003850:	20400581 	subcs	r0, r0, r1, lsl #11
47003854:	e1500501 	cmp	r0, r1, lsl #10
47003858:	e0a22002 	adc	r2, r2, r2
4700385c:	20400501 	subcs	r0, r0, r1, lsl #10
47003860:	e1500481 	cmp	r0, r1, lsl #9
47003864:	e0a22002 	adc	r2, r2, r2
47003868:	20400481 	subcs	r0, r0, r1, lsl #9
4700386c:	e1500401 	cmp	r0, r1, lsl #8
47003870:	e0a22002 	adc	r2, r2, r2
47003874:	20400401 	subcs	r0, r0, r1, lsl #8
47003878:	e1500381 	cmp	r0, r1, lsl #7
4700387c:	e0a22002 	adc	r2, r2, r2
47003880:	20400381 	subcs	r0, r0, r1, lsl #7
47003884:	e1500301 	cmp	r0, r1, lsl #6
47003888:	e0a22002 	adc	r2, r2, r2
4700388c:	20400301 	subcs	r0, r0, r1, lsl #6
47003890:	e1500281 	cmp	r0, r1, lsl #5
47003894:	e0a22002 	adc	r2, r2, r2
47003898:	20400281 	subcs	r0, r0, r1, lsl #5
4700389c:	e1500201 	cmp	r0, r1, lsl #4
470038a0:	e0a22002 	adc	r2, r2, r2
470038a4:	20400201 	subcs	r0, r0, r1, lsl #4
470038a8:	e1500181 	cmp	r0, r1, lsl #3
470038ac:	e0a22002 	adc	r2, r2, r2
470038b0:	20400181 	subcs	r0, r0, r1, lsl #3
470038b4:	e1500101 	cmp	r0, r1, lsl #2
470038b8:	e0a22002 	adc	r2, r2, r2
470038bc:	20400101 	subcs	r0, r0, r1, lsl #2
470038c0:	e1500081 	cmp	r0, r1, lsl #1
470038c4:	e0a22002 	adc	r2, r2, r2
470038c8:	20400081 	subcs	r0, r0, r1, lsl #1
470038cc:	e1500001 	cmp	r0, r1
470038d0:	e0a22002 	adc	r2, r2, r2
470038d4:	20400001 	subcs	r0, r0, r1
470038d8:	e1a00002 	mov	r0, r2
470038dc:	e12fff1e 	bx	lr
470038e0:	03a00001 	moveq	r0, #1
470038e4:	13a00000 	movne	r0, #0
470038e8:	e12fff1e 	bx	lr
470038ec:	e16f2f11 	clz	r2, r1
470038f0:	e262201f 	rsb	r2, r2, #31
470038f4:	e1a00230 	lsr	r0, r0, r2
470038f8:	e12fff1e 	bx	lr
470038fc:	e3500000 	cmp	r0, #0
47003900:	13e00000 	mvnne	r0, #0
47003904:	ea000007 	b	47003928 <__aeabi_idiv0>

47003908 <__aeabi_uidivmod>:
47003908:	e3510000 	cmp	r1, #0
4700390c:	0afffffa 	beq	470038fc <__aeabi_uidiv+0x1e0>
47003910:	e92d4003 	push	{r0, r1, lr}
47003914:	ebffff80 	bl	4700371c <__aeabi_uidiv>
47003918:	e8bd4006 	pop	{r1, r2, lr}
4700391c:	e0030092 	mul	r3, r2, r0
47003920:	e0411003 	sub	r1, r1, r3
47003924:	e12fff1e 	bx	lr

47003928 <__aeabi_idiv0>:
47003928:	e92d4002 	push	{r1, lr}
4700392c:	e3a00008 	mov	r0, #8
47003930:	ebfffb07 	bl	47002554 <raise>
47003934:	e8bd8002 	pop	{r1, pc}
